
/home/kepler/share/huwei_CBG/SDK/build_tmp/DW21_release/all/bin/flashboot/start_from_romboot/dw21_flash_boot.elf:     file format elf32-littlearm

SYMBOL TABLE:
01000c00 l    d  .text.isr_vector	00000000 .text.isr_vector
00010800 l    d  .rom.text	00000000 .rom.text
0203f000 l    d  .u_boot_cmd	00000000 .u_boot_cmd
0203f12c l    d  .rom.data	00000000 .rom.data
0203f224 l    d  .rom.bss	00000000 .rom.bss
02039000 l    d  .text	00000000 .text
0203be08 l    d  .u_flash_boot_cmd	00000000 .u_flash_boot_cmd
0203be08 l    d  .data	00000000 .data
0203bf08 l    d  .bss	00000000 .bss
0203d000 l    d  .stacks	00000000 .stacks
02017000 l    d  .heap	00000000 .heap
00000000 l    d  .ARM.attributes	00000000 .ARM.attributes
00000000 l    d  .comment	00000000 .comment
00000000 l    df *ABS*	00000000 init.o
00002000 l       *ABS*	00000000 STACK_SIZE_SYSTEM
0203d000 l       .stacks	00000000 stack_system_end
01000c00 l     O .text.isr_vector	00000000 g_pfnVectors
01000c66 l       .text.isr_vector	00000000 stack_fill
01000c74 l       .text.isr_vector	00000000 stack_fill_loop_end
01000c6c l       .text.isr_vector	00000000 stack_fill_loop
01000c8a l       .text.isr_vector	00000000 end_clear_bss_loop
01000c80 l       .text.isr_vector	00000000 clear_bss_loop
01000ca0 l       .text.isr_vector	00000000 end_clear_rom_bss_loop
01000c96 l       .text.isr_vector	00000000 clear_rom_bss_loop
01000cb8 l       .text.isr_vector	00000000 end_rom_data_loop
01000caa l       .text.isr_vector	00000000 start_rom_data_loop
01000cd0 l       .text.isr_vector	00000000 end_set_ram_loop
01000cc2 l       .text.isr_vector	00000000 set_ram_loop
00000000 l    df *ABS*	00000000 main.c
0203900c l     F .text	00000070 start_fast_boot_print_msg
0203907c l     F .text	00000058 soft_value_init
020390d4 l     F .text	00000038 fast_boot_malloc_funcs_init
0203910c l     F .text	00000024 fastboot_debug_uart_init
02039130 l     F .text	00000034 fastboot_flash_funcs_init
02039164 l     F .text	00000024 start_fast_boot_init
02039188 l     F .text	0000000a uint_2_multiply.constprop.0
00000000 l    df *ABS*	00000000 soc_flashboot_flash.c
02039304 l     F .text	00000014 uapi_flash_protect_cancel
0203c35c l     O .bss	00000001 g_flash_protect_enable
00000000 l    df *ABS*	00000000 crc32.c
02039448 l     F .text	0000009c crc32_no_comp
00000000 l    df *ABS*	00000000 lzmaram.c
020394f0 l     F .text	0000000a lzma_free
020394fc l     F .text	00000024 lzma_alloc
00000000 l    df *ABS*	00000000 soc_fnv.c
02039688 l     F .text	0000002e nv_init_data_check_all_success
020396b8 l     F .text	0000003a nv_init_data_prepare
020396f4 l     F .text	00000050 nv_check_file
02039744 l     F .text	00000036 nv_repair_from_backup
0203977c l     F .text	00000034 nv_init_data_check_all_fail
020397b0 l     F .text	000000b8 nv_write_update_data
02039868 l     F .text	00000030 nv_write_para_check.constprop.0
02039898 l     F .text	00000040 nv_find_item.constprop.0
020398d8 l     F .text	00000028 nv_repair_file.constprop.0
02039900 l     F .text	00000062 nv_init_data_check_once_fail
02039964 l     F .text	0000007c nv_init_data_check
020399e0 l     F .text	0000000a uint_2_multiply.constprop.0
020399ec l     F .text	00000042 nv_init_index_space
02039b98 l     F .text	00000058 nv_write_cmp_readback
0203c360 l     O .bss	00000048 g_nv_ctrl
00000000 l    df *ABS*	00000000 boot_partition_table.c
02039d8c l     F .text	0000002a flash_partition_get_ver
02039db8 l     F .text	0000004c flash_partition_check_ver
02039e04 l     F .text	0000001c uapi_flash_partition_refresh_free_memery
02039e20 l     F .text	00000078 uapi_flash_self_check
02039e98 l     F .text	00000040 uapi_flash_partition_refresh_malloc.constprop.0
02039ee0 l     F .text	000001a0 uapi_flash_partition_refresh_proc55
0203a080 l     F .text	00000016 flash_partition_reset
0203a098 l     F .text	00000036 uapi_flash_after_move
0203c3a8 l     O .bss	0000003c g_partition_table
00000000 l    df *ABS*	00000000 boot_check_secure_info.c
0203a174 l     F .text	00000040 uapi_is_secure_start
00000000 l    df *ABS*	00000000 boot_start.c
0203a410 l     F .text	0000000c boot_upg_is_upgrade_boot_reason
0203a41c l     F .text	00000044 boot_upg_process_phase1.constprop.0
00000000 l    df *ABS*	00000000 boot_start_check.c
00000000 l    df *ABS*	00000000 boot_start_init.c
0203a758 l     F .text	00000004 uint_2_multiply.constprop.0
0203c410 l     O .bss	0000002c g_start_tbl.0
0203c43c l     O .bss	0000005c g_upg_head.2
0203c498 l     O .bss	00000018 g_upg_section_info.1
00000000 l    df *ABS*	00000000 boot_upg_check.c
0203a848 l     F .text	0000000c uapi_product_get_type
0203a854 l     F .text	00000014 upg_check_chip_maigc
0203a868 l     F .text	00000010 upg_check_file_len
0203a878 l     F .text	00000070 boot_upg_check_by_file_type
0203a8e8 l     F .text	0000002e upg_check_product_list.constprop.0
0203a9fc l     F .text	00000028 upg_get_head_from_flash.constprop.0
0203c4b0 l     O .bss	00000001 s_b_checked.0
00000000 l    df *ABS*	00000000 upg_boot.c
00000000 l    df *ABS*	00000000 upg_ftm_nv.c
00000000 l    df *ABS*	00000000 upg_kernel.c
00000000 l    df *ABS*	00000000 upg_secure_boot.c
0203ae80 l     F .text	0000001c flash_boot_verify_sign_alg
0203ae9c l     F .text	00000064 flash_boot_verify_root_pub_key
0203af00 l     F .text	000000a4 flash_boot_verify_sub_key
0203afa4 l     F .text	000000c2 flash_boot_verify_maintenance_key
0203b068 l     F .text	0000005a flash_boot_verify_bootloader
0203b0c4 l     F .text	0000009a flash_boot_verify_proc
00000000 l    df *ABS*	00000000 upg_temp.c
00000000 l    df *ABS*	00000000 upg_tool.c
0203b244 l     F .text	0000001c kernel_comprss_flash_read
0203b260 l     F .text	0000001c kernel_comprss_flash_write
0203b27c l     F .text	00000094 upg_hash_block_2
0203c4b4 l     O .bss	00000004 g_compress_dst_addr
0203c4b8 l     O .bss	00000004 g_compress_src_addr
00000000 l    df *ABS*	00000000 chip.c
00000000 l    df *ABS*	00000000 flash_soc_process.c
01000d20 l     F .text.isr_vector	00000008 __start_fastboot_veneer
0203bce8 l     F .text	00000008 __uapi_hash_sha256_veneer
0203bcf0 l     F .text	00000008 __memcmp_veneer
0203bcf8 l     F .text	00000008 __boot_msg2_veneer
0203bd00 l     F .text	00000008 __boot_msg0_veneer
0203bd08 l     F .text	00000008 __boot_malloc_init_veneer
0203bd10 l     F .text	00000008 __spif_write_enable_veneer
0203bd18 l     F .text	00000008 __uapi_watchdog_disable_veneer
0203bd20 l     F .text	00000008 __uart_auth_process_veneer
0203bd28 l     F .text	00000008 __boot_malloc_veneer
0203bd30 l     F .text	00000008 __memset_s_veneer
0203bd38 l     F .text	00000008 __boot_free_veneer
0203bd40 l     F .text	00000008 __uapi_hash_final_veneer
0203bd48 l     F .text	00000008 __uapi_hash_start_veneer
0203bd50 l     F .text	00000008 __strcpy_s_veneer
0203bd58 l     F .text	00000008 __flash_write_prv_veneer
0203bd60 l     F .text	00000008 __serial_init_veneer
0203bd68 l     F .text	00000008 __cli_loop_veneer
0203bd70 l     F .text	00000008 __flash_erase_prv_veneer
0203bd78 l     F .text	00000008 __uapi_efuse_read_veneer
0203bd80 l     F .text	00000008 __uapi_rsa_verify_veneer
0203bd88 l     F .text	00000008 __spi_flash_read_reg_veneer
0203bd90 l     F .text	00000008 __uapi_hash_update_veneer
0203bd98 l     F .text	00000008 __sfc_check_para_veneer
0203bda0 l     F .text	00000008 __do_reset_veneer
0203bda8 l     F .text	00000008 __uapi_register_malloc_veneer
0203bdb0 l     F .text	00000008 __flash_read_prv_veneer
0203bdb8 l     F .text	00000008 __spi_flash_basic_info_probe_veneer
0203bdc0 l     F .text	00000008 __memset_veneer
0203bdc8 l     F .text	00000008 __uapi_watchdog_enable_veneer
0203bdd0 l     F .text	00000008 __uapi_cmd_regist_flash_cmd_veneer
0203bdd8 l     F .text	00000008 __boot_msg4_veneer
0203bde0 l     F .text	00000008 __LzmaDecode2_veneer
0203bde8 l     F .text	00000008 __uapi_time_counter_getms_veneer
0203bdf0 l     F .text	00000008 __boot_msg1_veneer
0203bdf8 l     F .text	00000008 __memcpy_s_veneer
0203be00 l     F .text	00000008 __spif_wait_config_start_veneer
0203f264 g       *ABS*	00000000 dp_last_size
0203f280 g       *ABS*	00000000 console_buffer
00015a1c g       *ABS*	00000000 LzmaDec_InitRc
00012b30 g       *ABS*	00000000 uapi_io_set_func
00012c18 g       *ABS*	00000000 uapi_io_get_output_val
00012670 g       *ABS*	00000000 xyzModem_error
0203f03c g       *ABS*	00000000 __u_boot_cmd_program
00017944 g       *ABS*	00000000 CSWTCH.17
0203a0d0 g     F .text	0000000a uapi_flash_partition_check_ver
00012894 g       *ABS*	00000000 uapi_efuse_get_lockstat
00016380 g       *ABS*	00000000 mdelay
00014758 g       *ABS*	00000000 UAPI_CIPHER_Padding
00014b20 g       *ABS*	00000000 uapi_watchdog_enable
02039194 g     F .text	00000004 boot_kernel
0203f000 g       .u_boot_cmd	00000000 __u_boot_cmd_start
00012b98 g       *ABS*	00000000 uapi_io_get_dir
00015ef8 g       *ABS*	00000000 LzmaDec_Allocate
0001084c g       *ABS*	00000000 do_go
0203a6fc g     F .text	0000005c boot_start_check_nvfile
0203a1b4 g     F .text	00000020 uapi_secure_save_key_pos
00014af4 g       *ABS*	00000000 uapi_watchdog_feed
0203f000 g       .u_boot_cmd	00000000 __rom_copy_ram_start
00011288 g       *ABS*	00000000 uapi_cmd_regist_flash_cmd
000163b0 g       *ABS*	00000000 uapi_get_malloc_struct
02039d0c g     F .text	0000005e uapi_nv_check_file
00011c9c g       *ABS*	00000000 cli_simple_loop
0001139c g       *ABS*	00000000 do_spi_reg_read
00012b48 g       *ABS*	00000000 uapi_io_get_func
0001323c g       *ABS*	00000000 spi_flash_read_ram_align
000179cc g       *ABS*	00000000 g_spi_opt_chip_erase1
000155d8 g       *ABS*	00000000 LzmaDec_TryDummy
0203f224 g       *ABS*	00000000 g_ymodemBuf
0203a1d4 g     F .text	000000d0 boot_start_check_tbl_secure_info
0203f078 g       *ABS*	00000000 __u_boot_cmd_md
0001365c g       *ABS*	00000000 uapi_led_config
02039370 g     F .text	00000044 uapi_flash_write
0203b5fc g     O .text	00000050 g_flash_usr_info_tbl
0203f7bd g       *ABS*	00000000 g_uart_print_err
0203f028 g       *ABS*	00000000 __u_boot_cmd_setuartparam
00012af0 g       *ABS*	00000000 get_efuse_cfg
0203bf08 g     O .bss	00000400 g_dma_buffer
0203b160 g     F .text	00000094 flash_boot_security_boot_verify
0203f0f0 g       *ABS*	00000000 __u_boot_cmd_otpw
00012000 g       *ABS*	00000000 xyzModem_get_hdr
0203f050 g       *ABS*	00000000 __u_boot_cmd_loady
0203f12c g       *ABS*	00000000 dp_last_length
00010ec0 g       *ABS*	00000000 do_mem_mw
000162b8 g       *ABS*	00000000 __toupper
000116e4 g       *ABS*	00000000 upload_send_data
00011d10 g       *ABS*	00000000 print_cmd_result
0203c3e4 g     O .bss	0000002c g_start_ctrl
00014008 g       *ABS*	00000000 set_flow_ctr
0203f0a0 g       *ABS*	00000000 __u_boot_cmd_otphelp
0203f7c4 g       *ABS*	00000000 g_segmentation_hash
0203f220 g       *ABS*	00000000 g_flash_drv_option
00013c2c g       *ABS*	00000000 HAL_RSA_WaitFree
00011d60 g       *ABS*	00000000 cmd_call
0203a92c g     F .text	00000012 upg_check_file_type
00015ab4 g       *ABS*	00000000 LzmaDec_DecodeToDic
000179ac g       *ABS*	00000000 CSWTCH.29
00016d0c g       *ABS*	00000000 uart_auth_usr_interrupt_verify
00013064 g       *ABS*	00000000 spif_map_chipsize
00015a44 g       *ABS*	00000000 LzmaDec_InitDicAndState
00016d58 g       *ABS*	00000000 uart_auth_process
00012fec g       *ABS*	00000000 spif_reg_erase
020394e4 g     F .text	0000000c uapi_crc32
00011ef4 g       *ABS*	00000000 _is_hex
00011198 g       *ABS*	00000000 do_efuse_lock
0203f0c8 g       *ABS*	00000000 __u_boot_cmd_otplock
00014b94 g       *ABS*	00000000 crc16_ccitt
0203f000 g       .stacks	00000000 __SYSTEM_STACK_END__
0203a6b0 g     F .text	0000004c boot_start_check_kernel
00015de8 g       *ABS*	00000000 LzmaDec_FreeDict
00016cc0 g       *ABS*	00000000 uart_auth_challenge_process
00013f4c g       *ABS*	00000000 serial_put_buf
0203ad94 g     F .text	000000ec boot_upg_kernel_process
0001083c g       *ABS*	00000000 do_go_exec
0203f064 g       *ABS*	00000000 __u_boot_cmd_mw
0203f38c g       *ABS*	00000000 xyz
00012bf0 g       *ABS*	00000000 uapi_io_get_input_val
000161cc g       *ABS*	00000000 LzmaDecode2
00011da0 g       *ABS*	00000000 find_command
0203ab68 g     F .text	00000028 boot_upg_check_upg_phase0
00013c20 g       *ABS*	00000000 HAL_RSA_Start
02039198 g     F .text	0000006c boot_firmware
0001676c g       *ABS*	00000000 memcpy
0203f7bc g       *ABS*	00000000 g_uart_mute
000147c4 g       *ABS*	00000000 hal_hash_padding
00015dfc g       *ABS*	00000000 LzmaDec_Free
00013388 g       *ABS*	00000000 flash_write_prv
000117d0 g       *ABS*	00000000 upload_serial_ymodem
02039000 g       .heap	00000000 __HEAP_END__
00015fe4 g       *ABS*	00000000 lzmaBuffToBuffDecompress
00013998 g       *ABS*	00000000 RSA_padding_check_EMSA_PKCS1_PSS
0203ab18 g     F .text	00000050 boot_upg_clear_upg_magic_all
0203aac8 g     F .text	00000050 boot_upg_clear_upg_magic_one
00014bbc g       *ABS*	00000000 LzmaDec_DecodeReal
00013c58 g       *ABS*	00000000 HAL_RSA_ClearRam
000129b0 g       *ABS*	00000000 uapi_efuse_read_bits
00000604 g       *ABS*	00000000 ROM_BSS_SIZE
0001255c g       *ABS*	00000000 xyzModem_stream_close
00014a70 g       *ABS*	00000000 uapi_time_counter_getms
00013eb8 g       *ABS*	00000000 serial_set_mute
0203f388 g       *ABS*	00000000 g_load_file_length
00015a64 g       *ABS*	00000000 LzmaDec_Init
00011eb8 g       *ABS*	00000000 CYGACC_COMM_IF_GETC_TIMEOUT
0203a75c g     F .text	000000c8 boot_upg_init_phase1
000179f4 g       *ABS*	00000000 g_flash_default_info_tbl
00010998 g       *ABS*	00000000 load_malloc_init
0203be08 g       .u_flash_boot_cmd	00000000 __u_flash_boot_cmd_end
000167bc g       *ABS*	00000000 uart_auth_init_addr
00014458 g       *ABS*	00000000 uapi_hash_start
00013454 g       *ABS*	00000000 flash_erase_prv
00011f48 g       *ABS*	00000000 parse_num
020393e8 g     F .text	00000060 uapi_flash_init
0203b368 g     F .text	00000048 upg_hash_block
00013178 g       *ABS*	00000000 spi_serach_ids
00014858 g       *ABS*	00000000 hal_hash_init
00013e20 g       *ABS*	00000000 dw_wait_idle
00011698 g       *ABS*	00000000 upload_send_null_info
00012944 g       *ABS*	00000000 efuse_writebit
0000757c g       *ABS*	00000000 ROM_TEXT_SIZE
00017a3c g       *ABS*	00000000 g_hash_init_state
000167c0 g       *ABS*	00000000 uart_auth_init
0001449c g       *ABS*	00000000 drv_hash_update
000154fc g       *ABS*	00000000 LzmaDec_WriteRem
0203acfc g     F .text	00000054 boot_upg_is_do_upg_from_nv
02039bf0 g     F .text	000000f2 nv_write_common
00011480 g       *ABS*	00000000 do_spi_flash
000179f0 g       *ABS*	00000000 g_spi_opt_standard_read
00012b68 g       *ABS*	00000000 uapi_io_set_dir
000108a4 g       *ABS*	00000000 do_set_uart_param
00010b10 g       *ABS*	00000000 do_load_serial_bin
000109c8 g       *ABS*	00000000 load_malloc_deinit
0203a460 g     F .text	00000064 boot_upg_process
000179e8 g       *ABS*	00000000 g_spi_opt_64KBLK_erase
0203f25c g       *ABS*	00000000 dp_last_addr
00011f10 g       *ABS*	00000000 _from_hex
00012918 g       *ABS*	00000000 check_efuse_isbusy
000179d4 g       *ABS*	00000000 g_spi_opt_fast_quad_out_read
0001141c g       *ABS*	00000000 do_spi_reg_write
02039d04 g     F .text	00000004 uapi_common_nv_read
000125e8 g       *ABS*	00000000 xyzModem_stream_terminate
00013330 g       *ABS*	00000000 flash_write_with_check
00014558 g       *ABS*	00000000 uapi_hash_final
00013298 g       *ABS*	00000000 spi_flash_write_ram_align
000112a0 g       *ABS*	00000000 do_spi_flash_read_write
0203effc g     O .stacks	00002000 stack_system
02039d6c g     F .text	0000001e uapi_nv_get_ver
000179dc g       *ABS*	00000000 g_spi_opt_fast_read
0001432c g       *ABS*	00000000 boot_put_errno
0203f118 g       *ABS*	00000000 __u_boot_cmd_uploady
02017000 g       .heap	00000000 __HEAP_BEGIN__
0203b310 g     F .text	00000058 upg_crc_block
01000c40  w    F .text.isr_vector	00000094 Reset_Handler
000179d0 g       *ABS*	00000000 g_spi_opt_chip_erase2
00014a60 g       *ABS*	00000000 uapi_time_counter_gettime
000179ec g       *ABS*	00000000 g_spi_opt_32KBLK_erase
0203bf08 g       .data	00000000 __ram_copy_ram_end
00012688 g       *ABS*	00000000 uapi_efuse_read
00010800 g       *ABS*	00000000 do_reset
00010c9c g       *ABS*	00000000 print_buffer
0203aa78 g     F .text	0000004e uapi_upg_check_head
00012d68 g       *ABS*	00000000 spif_dma_transfer
0203ac18 g     F .text	00000048 boot_upg_check_upg_phase2
0203f27c g       *ABS*	00000000 g_upload_ctx
00012f2c g       *ABS*	00000000 spif_dma_read
02039a30 g     F .text	000000a4 nv_init_common
00011fe0 g       *ABS*	00000000 xyzModem_flush
00011160 g       *ABS*	00000000 do_efuse_get_lock
000119a0 g       *ABS*	00000000 delete_char
0203a940 g     F .text	000000bc upg_conver_tail_addr_2_head_addr
0001199c g       *ABS*	00000000 cli_loop
000137ac g       *ABS*	00000000 RSA_PKCS1_MGF1
0001157c g       *ABS*	00000000 upload_malloc_init
000179e4 g       *ABS*	00000000 g_spi_opt_fast_dual_out_read
0203f828 g       .rom.bss	00000000 __rom_bss_end
0001414c g       *ABS*	00000000 set_uart_param
00016564 g       *ABS*	00000000 memcpy_s
00016bc4 g       *ABS*	00000000 uart_auth_base_process
0203b64c g     O .text	00000400 g_crc_table
0203a824 g     F .text	00000024 boot_upg_init_phash2
00013f70 g       *ABS*	00000000 serial_tstc
000165a8 g       *ABS*	00000000 memset_s
0203bf08 g       .data	00000000 __data_end__
00011e0c g       *ABS*	00000000 find_cmd
02039d08 g     F .text	00000004 uapi_common_nv_write
00011e90 g       *ABS*	00000000 set_start_status
00011f38 g       *ABS*	00000000 _tolower
00013c6c g       *ABS*	00000000 HAL_RSA_ConfigMode
000126e4 g       *ABS*	00000000 uapi_efuse_write
000179e0 g       *ABS*	00000000 g_spi_opt_page_program_write
000131e0 g       *ABS*	00000000 sfc_check_para
0203c5bc g       .bss	00000000 __bss_end__
00013ee8 g       *ABS*	00000000 serial_exit
00017a7c g       *ABS*	00000000 crc16_tab
00016d3c g       *ABS*	00000000 uart_auth_wait_usr_interrupt
0203bba8 g     F .text	00000074 spi_flash_write_sr_reg
02039318 g     F .text	00000028 uapi_flash_protect_enable
00012f8c g       *ABS*	00000000 spif_dma_write
00011034 g       *ABS*	00000000 do_enable_jtag
00016800 g       *ABS*	00000000 uart_auth_deinit
000143e0 g       *ABS*	00000000 boot_msg4
00015ec0 g       *ABS*	00000000 LzmaDec_AllocateProbs
0203f800 g       *ABS*	00000000 g_st_dfx
00011a50 g       *ABS*	00000000 cli_readline_into_buffer
00013f00 g       *ABS*	00000000 serial_putc
00016b50 g       *ABS*	00000000 uart_auth_random_tx
0203aa24 g     F .text	00000054 upg_check_head_common_info
0203f224 g       *ABS*	00000000 .rom.bss
0203f818 g       *ABS*	00000000 g_malloc_func
00016674 g       *ABS*	00000000 strncmp
0001367c g       *ABS*	00000000 led_ctrl
00015dd4 g       *ABS*	00000000 LzmaDec_FreeProbs
00014a84 g       *ABS*	00000000 uapi_get_random
0001435c g       *ABS*	00000000 boot_puthex
0203f224 g       .rom.data	00000000 __rom_copy_ram_end
0203f12c g       .u_boot_cmd	00000000 __u_boot_cmd_end
00016368 g       *ABS*	00000000 udelay
0203f824 g       *ABS*	00000000 g_uart_auth_ctx
00010c84 g       *ABS*	00000000 ctrlc
000179a8 g       *ABS*	00000000 erase_seq
00010db4 g       *ABS*	00000000 cmd_get_data_size
000169ec g       *ABS*	00000000 uart_auth_random_response_verify
000160c4 g       *ABS*	00000000 Decode2
0001362c g       *ABS*	00000000 sfc_sys_init
02039340 g     F .text	00000030 uapi_flash_erase
0203f7f4 g       *ABS*	00000000 s_HashInfo
00015a70 g       *ABS*	00000000 LzmaDec_InitStateReal
00013e58 g       *ABS*	00000000 dw_getc
00014378 g       *ABS*	00000000 boot_msg0
000144b0 g       *ABS*	00000000 uapi_hash_update
00014a04 g       *ABS*	00000000 time_cnt_get_time
00016738 g       *ABS*	00000000 memcmp
02039cfc g     F .text	00000006 uapi_temp_nv_init
00016ae4 g       *ABS*	00000000 uart_auth_random_response_rx
0203f104 g       *ABS*	00000000 __u_boot_cmd_sf
00013120 g       *ABS*	00000000 spi_flash_configure_driver_strength
00015d20 g       *ABS*	00000000 LzmaDec_DecodeToBuf
0001652c g       *ABS*	00000000 rom_boot_free
00013078 g       *ABS*	00000000 spi_flash_read_chip_id
0203a508 g     F .text	0000010c boot_start_main
02039204 g     F .text	00000100 start_fastboot
0203f26c g       *ABS*	00000000 g_flash_cmd_funcs
000115ac g       *ABS*	00000000 upload_malloc_deinit
000006b4 g       *ABS*	00000000 __bss_size__
00017c7c g       *ABS*	00000000 _ctype
02039000  w    F .text	00000008 hard_reset
00013cec g       *ABS*	00000000 DRV_RSA_ClearRam
0203f228 g       *ABS*	00000000 g_st_softvalue
00012250 g       *ABS*	00000000 xyzModem_stream_open
00015e14 g       *ABS*	00000000 LzmaProps_Decode
00016398 g       *ABS*	00000000 uapi_register_malloc
000135f8 g       *ABS*	00000000 sfc_reset
0203a150 g     F .text	00000024 uapi_flash_partition_init
000166ec g       *ABS*	00000000 memset
0001361c g       *ABS*	00000000 sfc_clk_enable
00012cb4 g       *ABS*	00000000 spi_flash_read_reg
0203a918 g     F .text	00000012 upg_check_manufactuer
000163b8 g       *ABS*	00000000 boot_malloc_init
0203f268 g       *ABS*	00000000 flash
000140d4 g       *ABS*	00000000 set_fifo_line
000128a8 g       *ABS*	00000000 uapi_efuse_usr_read
00012a5c g       *ABS*	00000000 efuse_get_errstate
0203a4c4 g     F .text	00000042 boot_start_pre_check
0203be08 g       .data	00000000 __data_begin__
0203f304 g       *ABS*	00000000 lastcommand
000169a0 g       *ABS*	00000000 uart_auth_frame_rx
0203a3e4 g     F .text	0000002c boot_upg_check_secure_boot
00013edc g       *ABS*	00000000 serial_cancel_mute
0203f000 g       *ABS*	00000000 .u_boot_cmd
00012bc0 g       *ABS*	00000000 uapi_io_set_ouput_val
000000f8 g       *ABS*	00000000 ROM_DATA_SIZE
0203ad50 g     F .text	00000044 boot_upg_kernel_lzma_detect
02039000 g       .text	00000000 __ram_copy_ram_start
000165fc g       *ABS*	00000000 strcpy_s
00011340 g       *ABS*	00000000 do_spi_flash_erase
0203f0b4 g       *ABS*	00000000 __u_boot_cmd_otp_get_lock_status
000145a4 g       *ABS*	00000000 uapi_hash_sha256
000136c0 g       *ABS*	00000000 uapi_led_off
000163dc g       *ABS*	00000000 rom_boot_malloc_init
0001360c g       *ABS*	00000000 sfc_clk_disable
000118e8 g       *ABS*	00000000 do_upload_serial_bin
0203b458 g     F .text	00000090 uapi_rsa_verify_flash_content
0203bb98 g     F .text	00000010 uapi_get_hw_chip_type
00016654 g       *ABS*	00000000 strcmp
0001490c g       *ABS*	00000000 hal_hash_final
000149b8 g       *ABS*	00000000 uapi_time_count_enable
00016960 g       *ABS*	00000000 uart_auth_frame_data_rx
00012c54 g       *ABS*	00000000 spif_wait_ready
000142ec g       *ABS*	00000000 serial_init
000179d8 g       *ABS*	00000000 g_spi_opt_sector_erase
00016814 g       *ABS*	00000000 uart_auth_ctx
0203f000 g       *ABS*	00000000 __u_boot_cmd_reset
02039ad4 g     F .text	000000c4 nv_read_common
00017a30 g       *ABS*	00000000 CSWTCH.38
0001364c g       *ABS*	00000000 sfc_sys_exit
0203a2a4 g     F .text	00000140 boot_upg_check_secure_head
000136c8 g       *ABS*	00000000 uapi_led_flash
01000d28 g       *ABS*	00000000 __ram_copy_start
000148bc g       *ABS*	00000000 hal_hash_update
0203f130 g       *ABS*	00000000 g_efuse_cfg
0203be08 g       .u_flash_boot_cmd	00000000 __u_flash_boot_cmd_start
00012af8 g       *ABS*	00000000 uapi_get_efuse_cfg_by_id
00013714 g       *ABS*	00000000 RSA_GetBitNum
00017d7c g       *ABS*	00000000 __rom_copy_start
00002000 g       *ABS*	00000000 __SYSTEM_STACK_SIZE__
020395b0 g     F .text	000000d8 uapi_lzma_mem_detect
00010df0 g       *ABS*	00000000 do_mem_md
00011208 g       *ABS*	00000000 do_efuse_help
00013f2c g       *ABS*	00000000 serial_puts
00011e38 g       *ABS*	00000000 cmd_process
00016c8c g       *ABS*	00000000 uart_auth_challenge_response_verify
00014a7c g       *ABS*	00000000 uapi_time_counter_getus
00013f74 g       *ABS*	00000000 serial_puthex
000115c0 g       *ABS*	00000000 upload_send_file_info
0203b1f4 g     F .text	00000044 boot_firmware_new
00015560 g       *ABS*	00000000 LzmaDec_DecodeReal2
0001088c g       *ABS*	00000000 getcxmodem
0203ac60 g     F .text	0000009c boot_upg_process_boot
00014438 g       *ABS*	00000000 drv_hash_err_routine
000163c4 g       *ABS*	00000000 boot_malloc
00016820 g       *ABS*	00000000 uart_auth_result_tx
0203b3b0 g     F .text	000000a8 upg_copy_flash_2_flash
00013e7c g       *ABS*	00000000 dw_tstc
0203f260 g       *ABS*	00000000 base_address
01003b30 g       *ABS*	00000000 __data_flash_begin__
0203c308 g     O .bss	00000054 g_flash_drv_ctrl
00016b20 g       *ABS*	00000000 uart_auth_get_random_data
00013cd8 g       *ABS*	00000000 HAL_RSA_GetErrorCode
00011eec g       *ABS*	00000000 CYGACC_COMM_IF_PUTC
000130b0 g       *ABS*	00000000 spi_flash_enable_quad_mode
00011be4 g       *ABS*	00000000 cli_simple_run_command
0203bc1c g     F .text	000000c6 spi_flash_set_protect
000147d8 g       *ABS*	00000000 uapi_spacc_init
0203f0dc g       *ABS*	00000000 __u_boot_cmd_otpr
0203ab90 g     F .text	00000088 boot_upg_check_upg_phase1
00014b00 g       *ABS*	00000000 uapi_watchdog_disable
0203bf08 g       .bss	00000000 __bss_begin__
000162cc g       *ABS*	00000000 simple_strtoul
0203f224 g       .rom.bss	00000000 __rom_bss_start
0203f7d0 g       *ABS*	00000000 s_digest
00011080 g       *ABS*	00000000 do_read_efuse_by_id
00013c78 g       *ABS*	00000000 HAL_RSA_WriteData
000128c8 g       *ABS*	00000000 uapi_efuse_usr_write
000143ac g       *ABS*	00000000 boot_msg2
0203f12c g       *ABS*	00000000 .rom.data
0203a614 g     F .text	0000009c boot_start_check_read_tbl_info
02039ed8 g     F .text	00000008 uapi_get_partition_table
00013460 g       *ABS*	00000000 flash_read_prv
0203f7c0 g       *ABS*	00000000 g_uart_baseaddr
0203f7f0 g       *ABS*	00000000 s_u32CipherNodesPhy
0001465c g       *ABS*	00000000 hash_process
000138f4 g       *ABS*	00000000 RSA_padding_check_EMSA_PKCS1_v15
00010f68 g       *ABS*	00000000 do_write_efuse_by_id
0000012c g       *ABS*	00000000 UBOOT_CMD_SIZE
00011b7c g       *ABS*	00000000 cli_readline
00010b80 g       *ABS*	00000000 do_burn
00013ec4 g       *ABS*	00000000 check_uart_mute
00013f6c g       *ABS*	00000000 serial_getc
00013ce4 g       *ABS*	00000000 DRV_RSA_Init
00015f60 g       *ABS*	00000000 LzmaDecode
0203f08c g       *ABS*	00000000 __u_boot_cmd_jtag_enable
00012e18 g       *ABS*	00000000 spif_write_enable
02039554 g     F .text	0000005c uapi_lzma_decompress
00012ea4 g       *ABS*	00000000 spif_reg_erase_one_block
00012d1c g       *ABS*	00000000 spif_config
00010800 g       *ABS*	00000000 .rom.text
000149c8 g       *ABS*	00000000 uapi_time_count_disable
00013d2c g       *ABS*	00000000 RSA_Calc
0001686c g       *ABS*	00000000 uart_auth_frame_head_rx
0203f014 g       *ABS*	00000000 __u_boot_cmd_go
00012a8c g       *ABS*	00000000 uapi_efuse_write_bits
00016458 g       *ABS*	00000000 rom_boot_malloc
00012c40 g       *ABS*	00000000 spif_init_addr
02039520 g     F .text	00000034 uapi_lzma_get_uncompress_len
0203d000 g       .stacks	00000000 __SYSTEM_STACK_BEGIN__
000163d0 g       *ABS*	00000000 boot_free
00013e40 g       *ABS*	00000000 dw_putc
02039cec g     F .text	00000006 uapi_factory_nv_read
000165cc g       *ABS*	00000000 strcpy_error
000166d4 g       *ABS*	00000000 strlen
000109e0 g       *ABS*	00000000 load_serial_ymodem
00000224 g       *ABS*	00000000 __rom_copy_size
00013fcc g       *ABS*	00000000 serial_getc_timeout
0203a0dc g     F .text	00000072 uapi_flash_partition_refresh
00011998 g       *ABS*	00000000 run_command_repeatable
00012dc0 g       *ABS*	00000000 spif_read_ids
00013ca4 g       *ABS*	00000000 HAL_RSA_ReadData
000166bc g       *ABS*	00000000 strchr
00012c44 g       *ABS*	00000000 spif_wait_config_start
0203c4bc g     O .bss	00000100 g_upg_tool_block
02039ce4 g     F .text	00000008 uapi_factory_nv_init
020393b4 g     F .text	00000034 uapi_flash_read
0203be08 g     O .data	00000100 g_boot_key_n
000149d8 g       *ABS*	00000000 time_cnt_read_lock_enable
00013b64 g       *ABS*	00000000 uapi_rsa_verify
00016410 g       *ABS*	00000000 boot_mem_fresh
0001483c g       *ABS*	00000000 uapi_spacc_deinit
00012790 g       *ABS*	00000000 uapi_efuse_lock
00011cec g       *ABS*	00000000 print_cmd_help
0203b238 g     F .text	0000000c boot_reset
0001438c g       *ABS*	00000000 boot_msg1
00011b94 g       *ABS*	00000000 cli_simple_parse_line
00012e54 g       *ABS*	00000000 spi_flash_write_reg
00016c18 g       *ABS*	00000000 uart_auth_challenge_tx
000136b8 g       *ABS*	00000000 uapi_led_on
00013e8c g       *ABS*	00000000 change_uart
000134bc g       *ABS*	00000000 spi_flash_basic_info_probe
00015e80 g       *ABS*	00000000 LzmaDec_AllocateProbs2
02039cf4 g     F .text	00000006 uapi_factory_nv_write
0001236c g       *ABS*	00000000 xyzModem_stream_read
00014a64 g       *ABS*	00000000 uapi_time_counter_getsec
0001799c g       *ABS*	00000000 tab_seq
00002f08 g       *ABS*	00000000 __ram_copy_size
00013ce8 g       *ABS*	00000000 DRV_RSA_WaitDone


Contents of section .text.isr_vector:
 1000c00 fcef0302 410c0001 01900302 01900302  ....A...........
 1000c10 01900302 01900302 01900302 01900302  ................
 1000c20 01900302 01900302 01900302 01900302  ................
 1000c30 01900302 01900302 01900302 01900302  ................
 1000c40 244880f3 08882448 4ff00101 01602348  $H....$HO....`#H
 1000c50 23490160 234840f2 99210160 1f482249  #I.`#H@..!.`.H"I
 1000c60 01602249 224b5b1a 04d0224a 0a600431  .`"I"K[..."J.`.1
 1000c70 043bfbdc 2049214b 994206d0 4ff00002  .;.. I!K.B..O...
 1000c80 0a600431 9942fbd1 0a601d49 1d4b9942  .`.1.B...`.I.K.B
 1000c90 06d04ff0 00020a60 04319942 fbd10a60  ..O....`.1.B...`
 1000ca0 19491a4a 1a4b002b 06d01468 0c600432  .I.J.K.+...h.`.2
 1000cb0 0431043b 002bf8d1 1649174a 174b002b  .1.;.+...I.J.K.+
 1000cc0 06d01468 0c600432 0431043b 002bf8d1  ...h.`.2.1.;.+..
 1000cd0 00f026f8 fcef0302 5cb00340 00d30340  ..&.....\..@...@
 1000ce0 b32f801a 04d30340 b82f801a 00d00302  ./.....@./......
 1000cf0 00f00302 efbeadde 08bf0302 bcc50302  ................
 1000d00 24f20302 28f80302 00f00302 7c7d0100  $...(.......|}..
 1000d10 24020000 00900302 280d0001 082f0000  $.......(..../..
 1000d20 5ff800f0 05920302                    _.......        
Contents of section .text:
 2039000 014a4ff0 01011160 04000340 70b50646  .JO....`...@p..F
 2039010 0d461248 12491446 02f0eafe 114802f0  .F.H.I.F.....H..
 2039020 6ffe114b 11485968 02f0e2fe 76b90db9  o..K.HYh....v...
 2039030 34b970bd 29460e48 02f0dafe 002cf8d0  4.p.)F.H.....,..
 2039040 2146bde8 70400b48 02f0d2be 31460a48  !F..p@.H....1F.H
 2039050 02f0cefe 002debd0 ece700bf e8b40302  .....-..........
 2039060 0c000080 f8b40302 28f20302 0cb50302  ........(.......
 2039070 30b50302 4cb50302 18b50302 4ff4e821  0...L.......O..!
 2039080 30b44ff0 00724ff4 c0450320 04240b4b  0.O..rO..E. .$.K
 2039090 99600b49 c3e90025 c3e90441 094d0a4c  .`.I...%...A.M.L
 20390a0 83f82400 0948da60 c3e90650 1c620d21  ..$..H.`...P.b.!
 20390b0 30bc074a 03f12500 02f04abe 28f20302  0..J..%...J.(...
 20390c0 00700102 00900302 08be0302 08be0302  .p..............
 20390d0 64b50302 00b5094a 85b00949 094b01a8  d......J...I.K..
 20390e0 cde90112 039302f0 5ffe074b d3e90501  ........_..K....
 20390f0 02f00afe 05b05df8 04fb00bf 59640100  ......].....Yd..
 2039100 dd630100 2d650100 28f20302 4ff4e132  .c..-e..(...O..2
 2039110 02230120 054984b0 cde90121 039304ab  .#. .I.....!....
 2039120 13e90e00 04b002f0 1bbe00bf 08000200  ................
 2039130 10b50849 84b0084a 084b094c 6846cde9  ...I...J.K.LhF..
 2039140 0041cde9 022302f0 43fe00f0 4df904b0  .A...#..C...M...
 2039150 10bd00bf b5930302 71930302 41930302  ........q...A...
 2039160 e9930302 08b502f0 d7fd0648 02f02cfe  ...........H..,.
 2039170 fff784ff fff7aeff fff7c8ff bde80840  ...............@
 2039180 fff7d6bf 80b14f01 09b10003 08600120  ......O......`. 
 2039190 704700bf 01300047 10b51848 82b002f0  pG...0.G...H....
 20391a0 affd4ff4 e0433c20 019302f0 bdfd0446  ..O..C< .......F
 20391b0 28b10146 3c220420 00f098fd 80b12046  (..F<". ...... F
 20391c0 02f0bafd 4ff00072 4ff4c831 019800f0  ....O..rO..1....
 20391d0 f1f870b9 4ff00070 fff7dcff 02b010bd  ..p.O..p........
 20391e0 208a01a9 c0f30b00 fff7ceff 0028e6d1   ............(..
 20391f0 f4e70348 02f084fd ece700bf 74b50302  ...H........t...
 2039200 84b50302 2de9f043 83b0fff7 abff4ff4  ....-..C......O.
 2039210 8040dff8 dc80374b c8f84430 d8f84c70  .@....7K..D0..Lp
 2039220 07f07f47 47ea0003 c8f84c30 00f05afd  ...GG.....L0..Z.
 2039230 044610b3 0025a946 28210120 02f070fd  .F...%.F(!. ..p.
 2039240 a0b92a46 49462046 fff7e0fe 01a802f0  ..*FIF F........
 2039250 cbfd0199 284802f0 cbfd02f0 9dfc0128  ....(H.........(
 2039260 21d001f0 51f9fff7 97fffee7 02f054fd  !...Q.........T.
 2039270 03b0bde8 f04302f0 77bd3c20 02f054fd  .....C..w.< ..T.
 2039280 064668b1 00f064ff 3c228146 31460420  .Fh...d.<".F1F. 
 2039290 00f02cfd 054670b1 304602f0 4dfdcbe7  ..,..Fp.0F..M...
 20392a0 05468146 f8e71548 02f02afd 01f02cf9  .F.F...H..*...,.
 20392b0 fff772ff d9e7b089 2946c0f3 0b00fff7  ..r.....)F......
 20392c0 63ff0028 e8d03089 c0f30b00 fff75cff  c..(..0.......\.
 20392d0 0028e1d0 3389b289 c3f30b03 47ea0333  .(..3.......G..3
 20392e0 c8f84c30 c2f30b02 054b1203 5a60d3e7  ..L0.....K..Z`..
 20392f0 00000340 0c000080 acb50302 c0b50302  ...@............
 2039300 28f20302 034b1878 00b97047 00210846  (....K.x..pG.!.F
 2039310 02f084bc 5cc30302 074b084a 1870d36c  ....\....K.J.p.l
 2039320 20b143f0 00430020 d3647047 23f00043   .C..C. .dpG#..C
 2039330 0020d364 704700bf 5cc30302 00000340  . .dpG..\......@
 2039340 38b50446 0d460223 21462a46 074802f0  8..F.F.#!F*F.H..
 2039350 23fd00b1 38bdfff7 d5ff0028 fad12a46  #...8......(..*F
 2039360 2146bde8 38400148 02f002bd 08c30302  !F..8@.H........
 2039370 dab1f0b5 05460e46 14461f46 0a4683b0  .....F.F.F.F.F..
 2039380 01460123 0a4802f0 07fd08b1 03b0f0bd  .F.#.H..........
 2039390 fff7b8ff 0028f9d1 33462246 29460097  .....(..3F"F)F..
 20393a0 034802f0 d9fc03b0 f0bd40f6 7a607047  .H........@.z`pG
 20393b0 08c30302 9ab170b5 00230546 0e461446  ......p..#.F.F.F
 20393c0 0a460146 074802f0 e7fc00b1 70bd3346  .F.F.H......p.3F
 20393d0 22462946 bde87040 024802f0 e9bc40f6  "F)F..p@.H....@.
 20393e0 7a607047 08c30302 002330b5 134c83b0  z`pG.....#0..L..
 20393f0 2268cde9 0033012a 18d04ff4 80651049  "h...3.*..O..e.I
 2039400 0423a163 20466946 0e4a6563 02f0d4fc  .#.c FiF.Jec....
 2039410 054610b1 284603b0 30bd02f0 bdfb0128  .F..(F..0......(
 2039420 09d00123 28462360 03b030bd 40f68965  ...#(F#`..0.@..e
 2039430 284603b0 30bdfff7 6ffff2e7 08c30302  (F..0...o.......
 2039440 08bf0302 fcb50302 8b0710b4 0ed05ab1  ..............Z.
 2039450 234b0a44 11f8014b 4440e4b2 53f82440  #K.D...KD@..S.$@
 2039460 914284ea 1020f5d1 10bc7047 02f00304  .B... ....pG....
 2039470 9208a1f1 040c31d0 02f18042 013a184b  ......1....B.:.K
 2039480 01eb8201 5cf8042f 5040c2b2 53f82220  ....\../P@..S." 
 2039490 8c4582ea 1022d0b2 53f82000 80ea1222  .E..."..S. ...."
 20394a0 d0b253f8 200080ea 1220c2b2 53f82220  ..S. .... ..S." 
 20394b0 82ea1020 e6d1002c d6d00334 084b01f1  ... ...,...4.K..
 20394c0 030c2144 1cf8012f 4240d2b2 53f82220  ..!D.../B@..S." 
 20394d0 8c4582ea 1020f5d1 10bc7047 6146eae7  .E... ....pGaF..
 20394e0 4cb60302 08b5c043 fff7aeff c04308bd  L......C.....C..
 20394f0 084609b1 02f020bc 704700bf 38b50846  .F.... .pG..8..F
 2039500 0d4602f0 11fc0446 08b12046 38bd2946  .F.....F.. F8.)F
 2039510 024802f0 6dfc2046 38bd00bf 4cba0302  .H..m. F8...L...
 2039520 a8b1a2b1 9bb10d29 11d88446 d0f80900  .......)...F....
 2039530 68b910b4 dcf80110 dcf80540 b1f5805f  h..........@..._
 2039540 38bf4ff4 80511960 146010bc 70474ff0  8.O..Q.`.`..pGO.
 2039550 ff307047 70b58eb0 0b930023 0d261446  .0pGp......#.&.F
 2039560 0546cde9 05330793 0c930f4b 129a0893  .F...3.....K....
 2039570 0e4b0d92 099306aa 07ab0a96 fff7d0ff  .K..............
 2039580 06990caa 0aab0d3c cde90032 cde90241  .......<...2...A
 2039590 28460521 08ab05aa 02f022fc 003818bf  (F.!......"..8..
 20395a0 01204042 0eb070bd fd940302 f1940302  . @B..p.........
 20395b0 2de9f041 00248cb0 07ad6a46 01ab0746  -..A.$....jF...F
 20395c0 cde90144 cde90344 cde90544 c5e90144  ...D...D...D...D
 20395d0 c5e90344 00940794 fff7a2ff 06460028  ...D.........F.(
 20395e0 43d13878 e02844d8 254b4ff4 8051a3fb  C.8x.(D.%KO..Q..
 20395f0 00235a08 134602eb c202821a 4ff44070  .#Z..F......O.@p
 2039600 4ff48064 cde90311 1e49d2b2 a1fb031c  O..d.....I......
 2039610 01990694 05910cf0 1c0101eb 9c0ca3eb  ................
 2039620 0c03dbb2 13449840 00f23673 58002f46  .....D.@..6sX./F
 2039630 02f07afb 0cac0df1 0c0847f8 040b48b1  ..z.......G...H.
 2039640 a74209d0 58f8040b 02f06efb 47f8040b  .B..X.....n.G...
 2039650 0028f5d1 4ff0ff36 0bac2068 2746043c  .(..O..6.. h'F.<
 2039660 08b102f0 69fbaf42 f7d13046 0cb0bde8  ....i..B..0F....
 2039670 f0814ff0 ff363046 0cb0bde8 f08100bf  ..O..60F........
 2039680 398ee338 cdcccccc 30b4c468 cd68ac42  9..8....0..h.h.B
 2039690 0ad902f5 8051c3e9 00214289 1c309c60  .....Q...!B..0.`
 20396a0 5a825861 30bc7047 084602f5 80512c46  Z.Xa0.pG.F...Q,F
 20396b0 c3e90012 f1e700bf 70b50646 4ff48050  ........p..FO..P
 20396c0 0d4602f0 31fb58b1 02460446 4ff48051  .F..1.X..F.FO..Q
 20396d0 2846fff7 6ffe0546 30b92846 346070bd  (F..o..F0.(F4`p.
 20396e0 41f2ef35 284670bd 204602f0 25fb2846  A..5(Fp. F..%.(F
 20396f0 70bd00bf 38b5114c 114d012a 18bf2c46  p...8..L.M.*..,F
 2039700 0268a242 16d14289 0346b2f5 807f0ed8  .h.B..B..F......
 2039710 a1f10802 002003f1 08015c68 fff7e2fe  ..... ....\h....
 2039720 41f2f133 844214bf 18460020 38bd41f2  A..3.B...F. 8.A.
 2039730 ee3038bd 41f2f230 38bd00bf 464e5623  .08.A..08...FNV#
 2039740 484e5624 70b50446 0d461046 4ff48051  HNV$p..F.F.FO..Q
 2039750 2246fff7 2ffe00b1 70bd4ff4 80512846  "F../...p.O..Q(F
 2039760 fff7eefd 0028f7d1 03462246 2846bde8  .....(...F"F(F..
 2039770 70404ff4 8051fff7 fbbd00bf 70b5012a  p@O..Q......p..*
 2039780 049e12d0 05460a46 01463046 1c46fff7  .....F.F.F0F.F..
 2039790 d9ff48b9 05f58053 7289c4e9 0053f368  ..H....Sr....S.h
 20397a0 1c366282 a3606661 70bd41f2 f03070bd  .6b..`fap.A..0p.
 20397b0 2de9f041 0e460446 4ff48051 306882b0  -..A.F.FO..Q0h..
 20397c0 15461f46 94f80480 fff7f4fd 844618b1  .F.F.........F..
 20397d0 604602b0 bde8f081 42462168 fff782fe  `F......BF!h....
 20397e0 0190b8f1 000f2fd1 04237888 0deb0302  ....../..#x.....
 20397f0 c0f58051 4044a1eb 08012844 02f0fcfa  ...Q@D....(D....
 2039800 044658bb eb6840f6 f8720133 eb6005f1  .FX..h@..r.3.`..
 2039810 0801fff7 67fe0346 4ff48051 70686b60  ....g..FO..Qphk`
 2039820 fff78efd 84462346 2a464ff4 80517068  .....F#F*FO..Qph
 2039830 6446fff7 9dfd14eb 000c0fd1 6046089b  dF..........`F..
 2039840 1d6002b0 bde8f081 78884346 c0f58051  .`......x.CF...Q
 2039850 22682844 02f0d0fa 0028c5d0 4ff0ff3c  "h(D.....(..O..<
 2039860 604602b0 bde8f081 80b10139 c9b2fb29  `F.........9...)
 2039870 0cd80849 02eb4202 01ebc202 117c41f2  ...I..B......|A.
 2039880 ec300129 08bf0020 1a607047 41f2ee30  .0.)... .`pGA..0
 2039890 704700bf 60c30302 0e4b01eb 410103eb  pG..`....K..A...
 20398a0 c10330b4 5d8a5c69 8db10146 00232046  ..0.].\i...F.# F
 20398b0 03e09d42 00f10400 06d014f8 23200133  ...B........# .3
 20398c0 8a42f6d1 30bc7047 002030bc 70472846  .B..0.pG. 0.pG(F
 20398d0 f8e700bf 60c30302 38b54ff4 80531546  ....`...8.O..S.F
 20398e0 0a461946 044602f0 87fa00b1 38bd40f6  .F.F.F......8.@.
 20398f0 f872e560 04f10801 fff7f4fd 606038bd  .r.`........``8.
 2039900 70b50e46 05461146 049caeb1 03f58052  p..F.F.F.......R
 2039910 c4e90023 ca684b89 01326382 01f11c03  ...#.hK..2c.....
 2039920 2846a260 6361fff7 d7ff4ff4 80516068  (F.`ca....O..Q`h
 2039930 fff706fd 38b170bd 0d4603f5 8051c4e9  ....8.p..F...Q..
 2039940 00310146 e6e70346 2a464ff4 80516068  .1.F...F*FO..Q`h
 2039950 fff70efd 0028eed1 d4e90023 c4e90032  .....(.....#...2
 2039960 70bd00bf 2de9f047 089c0746 206840b3  p...-..G...F h@.
 2039970 1e466368 2bb38946 4ff48051 1546fff7  .Fch+..FO..Q.F..
 2039980 b9fe2a46 82464ff4 80516068 fff7b2fe  ..*F.FO..Q`h....
 2039990 8046baf1 000f09d0 c0b9d4e9 00023b46  .F............;F
 20399a0 51460896 bde8f047 fff7aabf 0028f4d1  QF.....G.....(..
 20399b0 d4e90001 33463a46 fff766fe 4046bde8  ....3F:F..f.@F..
 20399c0 f0874ff0 ff384046 bde8f087 24683346  ..O..8@F....$h3F
 20399d0 2a464946 38460894 bde8f047 fff7cebe  *FIF8F.....G....
 20399e0 03469b00 01200b60 704700bf 30b583b0  .F... .`pG..0...
 20399f0 044601a9 408afff7 f3ff80b1 019802f0  .F..@...........
 2039a00 93f90546 78b1638a 62690199 9b0002f0  ...Fx.c.bi......
 2039a10 f3f90123 00206561 237403b0 30bd4ff0  ...#. ea#t..0.O.
 2039a20 ff3003b0 30bd41f2 ef3003b0 30bd00bf  .0..0.A..0..0...
 2039a30 00232de9 f041264e 86b0cde9 023302eb  .#-..A&N.....3..
 2039a40 420306eb c306337c 012b2ad0 07468846  B.....3|.+*..F.F
 2039a50 014602a8 1546fff7 2ffe0446 38b10298  .F...F../..F8...
 2039a60 08b102f0 69f92046 06b0bde8 f08107f5  ....i. F........
 2039a70 805103a8 fff720fe 044608bb 029b2a46  .Q.... ..F....*F
 2039a80 0493039b 41460593 04ab0093 38463346  ....AF......8F3F
 2039a90 fff768ff 044650b1 039802f0 4df90298  ..h..FP.....M...
 2039aa0 dfe741f2 ed342046 06b0bde8 f081738a  ..A..4 F......s.
 2039ab0 b3f5807f f0d83046 fff798ff 0446ebe7  ......0F.....F..
 2039ac0 029802f0 39f90398 0028cad1 cbe700bf  ....9....(......
 2039ad0 60c30302 2de9f04f 4ff00008 83b0cdf8  `...-..OO.......
 2039ae0 048009b3 1546fab1 1c46dff8 a8b003eb  .....F...F......
 2039af0 43030beb c30393f8 10a04fea 4409baf1  C.........O.D...
 2039b00 010f0bd1 0e462146 fff7c6fe 074688b9  .....F!F.....F..
 2039b10 41f2f334 204603b0 bde8f08f 41f2ec34  A..4 F......A..4
 2039b20 204603b0 bde8f08f 41f2ee34 204603b0   F......A..4 F..
 2039b30 bde8f08f 4378ab42 03d09d42 28bf1d46  ....Cx.B...B(..F
 2039b40 c2464ff0 0308a144 0bebc909 7888d9f8  .FO....D....x...
 2039b50 00303246 29461844 fff72cfc 044698b9  .02F)F.D..,..F..
 2039b60 baf1010f d6d17888 d9f80030 04211844  ......x....0.!.D
 2039b70 284401aa fff71efc 30b92a46 3146fff7  (D......0.*F1F..
 2039b80 b1fc019b 9842c5d0 b8f10108 ded141f2  .....B........A.
 2039b90 f434bfe7 60c30302 2de9f041 0546fc20  .4..`...-..A.F. 
 2039ba0 0f461646 984602f0 bff8e0b1 04464346  .F.F.F.......FCF
 2039bb0 28463246 2146fff7 8dff0546 68b93246  (F2F!F.....Fh.2F
 2039bc0 21463846 02f094f8 38b141f2 f3352046  !F8F....8.A..5 F
 2039bd0 02f0b2f8 2846bde8 f0812046 02f0acf8  ....(F.... F....
 2039be0 2846bde8 f08141f2 ef352846 bde8f081  (F....A..5(F....
 2039bf0 2de9f043 1d468846 17460024 87b0012d  -..C.F.F.F.$...-
 2039c00 81462a46 39464046 02ab0cbf 02260126  .F*F9F@F.....&.&
 2039c10 cde90244 fff728fe 10b107b0 bde8f083  ...D..(.........
 2039c20 2b463a46 41464846 fff7b6ff 41f2f333  +F:FAFHF....A..3
 2039c30 98420446 48d12946 4846fff7 2dfe0546  .B.FH.)FHF..-..F
 2039c40 002841d0 cdf81080 8df81470 4278ba42  .(A........pBx.B
 2039c50 04d0ba42 28bf3a46 8df81420 4ff48050  ...B(.:F... O..P
 2039c60 02f062f8 0df10c08 07460299 0ce0dde9  ..b......F......
 2039c70 0213d1e9 0024c1e9 004213b1 db680390  .....$...B...h..
 2039c80 8b60012e 24d00126 00242b46 3a4604a8  .`..$..&.$+F:F..
 2039c90 cdf80080 fff78cfd 0028e8d0 0134032c  .........(...4.,
 2039ca0 1dd1dde9 0232d3e9 0001c3e9 00101ab1  .....2..........
 2039cb0 0021d268 03919a60 384602f0 3df841f2  .!.h...`8F..=.A.
 2039cc0 f43007b0 bde8f083 204607b0 bde8f083  .0...... F......
 2039cd0 384602f0 31f80020 07b0bde8 f0830299  8F..1.. ........
 2039ce0 d3e700bf 01220021 fff7a2be 0123fff7  .....".!.....#..
 2039cf0 f1be00bf 0123fff7 7bbf00bf 0222fff7  .....#..{...."..
 2039d00 97be00bf fff7e6be fff772bf 002370b5  ..........r..#p.
 2039d10 88b01c21 01aa0546 cde90233 cde90433  ...!...F...3...3
 2039d20 cde90633 0193fff7 45fb0446 10b12046  ...3....E..F.. F
 2039d30 08b070bd 069801f0 f7ff0646 90b10246  ..p........F...F
 2039d40 06992846 fff736fb 044628b9 02460699  ..(F..6..F(..F..
 2039d50 3046fff7 cffc0446 304601f0 edff2046  0F.....F0F.... F
 2039d60 08b070bd 41f2ef34 e1e700bf 51b10a46  ..p.A..4....Q..F
 2039d70 08b50421 1030fff7 1dfb0038 18bf0120  ...!.0.....8... 
 2039d80 404208bd 41f2ee30 704700bf 70b50646  @B..A..0pG..p..F
 2039d90 3c2001f0 c9ff0446 01233c22 04202146  < .....F.#<". !F
 2039da0 fff7b0ff 054608b9 23683360 204601f0  .....F..#h3` F..
 2039db0 c3ff2846 70bd00bf 0378db07 20d510b5  ..(Fp....x.. ...
 2039dc0 82b00446 01a8fff7 e1ffb0b9 9df80530  ...F...........0
 2039dd0 13f0f80f 11d06288 bdf80610 11420cd0  ......b......B..
 2039de0 6278d108 b1ebd30f 07d35340 13f0f80f  bx........S@....
 2039df0 14bf0120 002002b0 10bd0220 02b010bd  ... . ..... ....
 2039e00 02207047 38b50d46 04461046 01f094ff  . pG8..F.F.F....
 2039e10 284601f0 91ff2046 bde83840 01f08cbf  (F.... F..8@....
 2039e20 2de9f041 05461746 98463822 01230620  -..A.F.F.F8".#. 
 2039e30 0e462946 fff766ff 044618b9 95f90730  .F)F..f..F.....0
 2039e40 002b02db 2046bde8 f0810123 31463c22  .+.. F.....#1F<"
 2039e50 0520fff7 57ff0446 0028f3d1 a888c0f3  . ..W..F.(......
 2039e60 0b032bb9 012388f8 00302046 bde8f081  ..+..#...0 F....
 2039e70 39891803 c1f30b01 0903fff7 3fff08b1  9...........?...
 2039e80 0446dfe7 02233822 29460620 fff73aff  .F...#8")F. ..:.
 2039e90 0028f5d1 0223e6e7 f8b50546 38200e46  .(...#.....F8 .F
 2039ea0 174601f0 41ff2860 68b13c20 01f03cff  .F..A.(`h.< ..<.
 2039eb0 04463060 58b14ff4 805001f0 35ff0446  .F0`X.O..P..5..F
 2039ec0 38600120 04b1f8bd 306801f0 35ff2868  8`. ....0h..5.(h
 2039ed0 01f032ff 2046f8bd 00487047 a8c30302  ..2. F...HpG....
 2039ee0 2de9f04f 834689b0 0691fff7 f5ffdbf8  -..O.F..........
 2039ef0 04400790 14f4f83f 00f0a580 99460023  .@.....?.....F.#
 2039f00 92460493 049b0233 05930beb 8303df78  .F.....3.......x
 2039f10 bb0640f1 8e8007f0 1f070b2f 00f28980  ..@......../....
 2039f20 069b03eb 8701079b b1f80480 03eb8702  ................
 2039f30 93885568 4a68ce79 c3f30b03 c8f30b08  ..UhJh.y........
 2039f40 c5f30b35 c2f30b32 581908eb 0201f609  ...5...2X.......
 2039f50 4fea0333 4fea0030 4fea0838 4fea0131  O..3O..0O..8O..1
 2039f60 73d14345 65d09542 94bf2a03 12030292  s.CEe..B..*.....
 2039f70 059a0237 0beb8202 3bf82750 d278c5f3  ...7....;.'P.x..
 2039f80 0b059209 2d03012a 2e466cd0 434568d3  ....-..*.Fl.CEh.
 2039f90 4ff48052 03921d44 a8eb0303 01932fe0  O..R...D....../.
 2039fa0 52464ff4 80512846 fff704fa 04460028  RFO..Q(F.....F.(
 2039fb0 4ed1039b 42462946 2f481d44 01f09cfe  N...BF)F/H.D....
 2039fc0 4ff48051 4046fff7 bbf90146 23465246  O..Q@F.....F#FRF
 2039fd0 0c464046 4ff48051 fff7caf9 04434fea  .F@FO..Q.....CO.
 2039fe0 163135d1 3bf82720 4b4661f3 0b022bf8  .15.;.' KFa...+.
 2039ff0 27205946 38220620 fff784fe 044638bb  ' YF8". .....F8.
 203a000 019b03eb 0508029b 9e4206f5 8056c7d3  .........B...V..
 203a010 059b5946 0beb8303 da780620 6ff34512  ..YF.....x. o.E.
 203a020 da704b46 3822fff7 6ffe0446 80b9dbf8  .pKF8"..o..F....
 203a030 0440049b 01331a46 0493d2b2 c4f30433  .@...3.F.......3
 203a040 93423ff6 5faf0024 07e08842 8bd1f0e7  .B?._..$...B....
 203a050 52465846 0699fff7 d5fe2046 09b0bde8  RFXF...... F....
 203a060 f08f022a 94d1054a 6d42a0f5 8053a1f5  ...*...JmB...S..
 203a070 80580392 8fe700bf 60ba0302 00f0ffff  .X......`.......
 203a080 10b5fff7 29ffbde8 10400146 01233c22  ....)....@.F.#<"
 203a090 0420fff7 37be00bf 10b50123 04463c22  . ..7......#.F<"
 203a0a0 0420fff7 31fe00b1 10bd94f8 07c00123  . ..1..........#
 203a0b0 60f3c71c 38222146 062084f8 07c0fff7  `...8"!F. ......
 203a0c0 23fe0028 f0d1bde8 1040fff7 d9bf00bf  #..(.....@......
 203a0d0 08b1fff7 71be0220 704700bf 002310b5  ....q.. pG...#..
 203a0e0 84b003aa 02a901a8 cde90133 0393fff7  ...........3....
 203a0f0 d3fe0128 04d041f2 ef342046 04b010bd  ...(..A..4 F....
 203a100 fff7eafe 0df10303 0246dde9 0101fff7  .........F......
 203a110 87fe0446 01981cb9 90f90730 002b06db  ...F.......0.+..
 203a120 dde90212 fff76efe 204604b0 10bd9df8  ......n. F......
 203a130 0330dde9 0212fff7 d3fe0446 08b10198  .0.........F....
 203a140 eee7dde9 0101fff7 a7ff0446 f7e700bf  ...........F....
 203a150 08b54ff4 8040fff7 c5fdfff7 bdfe3c22  ..O..@........<"
 203a160 01460420 fff7c2fd 00b108bd bde80840  .F. ...........@
 203a170 fff7b4bf 002310b5 82b01020 0df10701  .....#..... ....
 203a180 8df80730 01f0f8fd 58b99df8 074014f0  ...0....X....@..
 203a190 010414bf 05480648 01f0b2fd 204602b0  .....H.H.... F..
 203a1a0 10bd0124 204602b0 10bd00bf 68ba0302  ...$ F......h...
 203a1b0 74ba0302 034b0448 0449054a 03445b1a  t....K.H.I.J.D[.
 203a1c0 93647047 303b0001 08be0301 08be0302  .dpG0;..........
 203a1d0 00000340 f0b5314d adf54d7d ec69002c  ...@..1M..M}.i.,
 203a1e0 57d04ff4 41720021 0ba801f0 e9fd0023  W.O.Ar.!.......#
 203a1f0 cde90333 8df80830 fff7bcff 58b1a369  ...3...0....X..i
 203a200 63b1e269 52b1e868 4ff44171 18440baa  c..iR..hO.Aq.D..
 203a210 fff7d0f8 38b10df5 4d7df0bd 41f2c230  ....8...M}..A..0
 203a220 0df54d7d f0bd4ff4 80730493 9df82e30  ..M}..O..s.....0
 203a230 8cafc3f3 05038df8 1c30194b 05ae8df8  .........0.K....
 203a240 08000593 03970122 0caf0096 02ab04a9  ......."........
 203a250 03a80697 01f000f9 0028dcd1 0122206a  .........(..." j
 203a260 e9689df8 2e300144 0391616a 8cadc3f3  .h...0.D..aj....
 203a270 050308ac 04910895 8df82830 4cad04a9  ..........(0L...
 203a280 03a80094 02ab8df8 08200995 01f0e4f8  ......... ......
 203a290 c1e74ff0 ff300df5 4d7df0bd e4c30302  ..O..0..M}......
 203a2a0 08be0302 f0b54a4e adf54f7d 4ff44172  ......JN..O}O.Ar
 203a2b0 00210da8 356a01f0 83fd0023 cde90333  .!..5j.....#...3
 203a2c0 cde90533 adf80830 fff754ff 00287ad0  ...3...0..T..(z.
 203a2d0 ab6c002b 71d0ea6c 002a6ed0 b0694ff4  .l.+q..l.*n..iO.
 203a2e0 41711844 0daafff7 65f80446 002866d1  Aq.D....e..F.(f.
 203a2f0 9df83731 9df83920 9df83810 35480093  ..71..9 ..8.5H..
 203a300 9df83631 01f068fd 9df83732 9df83921  ..61..h...72..9!
 203a310 9df83811 30480093 9df83632 01f05cfd  ..8.0H....62..\.
 203a320 9df83733 9df83922 9df83812 2b480093  ..73..9"..8.+H..
 203a330 9df83633 01f050fd 4ff48073 05939df8  ..63..P.O..s....
 203a340 36308df8 0840c3f3 05038df8 2430244b  60...@......$0$K
 203a350 07ac8eaf 00940793 03970122 02ab05a9  ..........."....
 203a360 03a80eaf 089701f0 77f80446 38bbd5e9  ........w..F8...
 203a370 12130124 b269686a 0b44c01a 9df83660  ...$.ihj.D....6`
 203a380 13442432 24390392 8df80840 8df80940  .D$2$9.....@...@
 203a390 8eaa0aac 05910690 04930a92 00940222  ..............."
 203a3a0 c6f30506 05a903a8 02ab4ead 8df83060  ..........N...0`
 203a3b0 0b9501f0 51f80446 01e041f2 c1342046  ....Q..F..A..4 F
 203a3c0 0df54f7d f0bd0446 20460df5 4f7df0bd  ..O}...F F..O}..
 203a3d0 e4c30302 84ba0302 90ba0302 9cba0302  ................
 203a3e0 08be0302 08b5fff7 c5fe68b1 074b5a6a  ..........h..KZj
 203a3f0 42b19b69 506803f1 80731844 bde80840  B..iPh...s.D...@
 203a400 00f0aebe 4ff0ff30 08bd00bf e4c30302  ....O..0........
 203a410 a0f10600 b0fa80f0 40097047 38b50f4b  ........@.pG8..K
 203a420 04461d6a 83f82a00 00f0f6fb 38b995f8  .F.j..*.....8...
 203a430 3330012b 0dd0032b 02d041f2 9a3038bd  30.+...+..A..08.
 203a440 2046fff7 e5ff0128 f7d1bde8 384000f0   F.....(....8@..
 203a450 07bcbde8 384000f0 9dbc00bf e4c30302  ....8@..........
 203a460 70b50446 134d0a46 13482146 ee6901f0  p..F.M.F.H!F.i..
 203a470 43fc2046 fff7d2ff 04461048 214601f0  C. F.....F.H!F..
 203a480 b7fc84b1 95f82830 db0605d4 0c4d2146  ......(0.....M!F
 203a490 284601f0 adfcfae7 e8687368 184400f0  (F.......hsh.D..
 203a4a0 a9fe0020 70bd00f0 37fb00f0 c5fe0020  ... p...7...... 
 203a4b0 70bd00bf e4c30302 acba0302 c8ba0302  p...............
 203a4c0 e8ba0302 10b500f0 a5f820b9 00f0f0f8  .......... .....
 203a4d0 044670b9 10bd0446 00f046fb 00f058fb  .Fp....F..F...X.
 203a4e0 21460120 fff7bcff 00f0e2f8 04460028  !F. .........F.(
 203a4f0 f0d000f0 39fb00f0 4bfb2146 bde81040  ....9...K.!F...@
 203a500 0220fff7 adbf00bf 30b53b49 83b03b48  . ......0.;I..;H
 203a510 01f06efc fff74efe 00f020f9 30b10446  ..n...N... .0..F
 203a520 374d2146 284601f0 63fcfae7 354c00f0  7M!F(F..c...5L..
 203a530 79f9fff7 c7ff94f8 283043f0 100384f8  y.......(0C.....
 203a540 283000f0 dbf80546 18bb00f0 0dfb94f8  (0.....F........
 203a550 283094f8 2910c3f3 80130093 01f00102  (0..)...........
 203a560 c1f38203 2848c1f3 400101f0 35fc94f8  ....(H..@...5...
 203a570 29309907 04d5da07 14d513f0 1c0f27d1  )0............'.
 203a580 e269e368 50681844 00f034fe 002003b0  .i.hPh.D..4.. ..
 203a590 30bd00f0 e9fa00f0 fbfa2946 0420fff7  0.........)F. ..
 203a5a0 5fffd2e7 00f0f4fa 01461848 01f020fc  _........F.H.. .
 203a5b0 94f82830 03f06003 602be1d1 00f09efb  ..(0..`.`+......
 203a5c0 0028ddd0 94f82b10 0620fff7 49ffd7e7  .(....+.. ..I...
 203a5d0 00f07afa 00f0dcfa a2690146 0c4801f0  ..z......i.F.H..
 203a5e0 8bfb94f8 28305b06 cad594f8 2b100620  ....(0[.....+.. 
 203a5f0 fff736ff c4e700bf 13121212 f4ba0302  ..6.............
 203a600 e8ba0302 e4c30302 10bb0302 1cbb0302  ................
 203a610 28bb0302 0023f0b5 244c83b0 e5692c21  (....#..$L...i,!
 203a620 2a46e068 0193fef7 c5fe40bb 43f6fc73  *F.h......@.C..s
 203a630 69680439 994227d8 e06801aa 043000f0  ih.9.B'..h...0..
 203a640 67fe2a68 019b0746 9a420dd1 60b9fff7  g.*h...F.B..`...
 203a650 c1fd0646 18bb94f8 283043f0 020384f8  ...F....(0C.....
 203a660 28303046 03b0f0bd 2c2341f2 8d360022  (00F....,#A..6."
 203a670 28461946 01f05cfb 304603b0 f0bd41f2  (F.F..\.0F....A.
 203a680 8a363046 03b0f0bd 2c2341f2 8b360246  .60F....,#A..6.F
 203a690 19462846 01f04cfb 304603b0 f0bd2c23  .F(F..L.0F....,#
 203a6a0 3a462846 194601f0 43fbdae7 e4c30302  :F(F.F..C.......
 203a6b0 002330b5 104d83b0 ec690193 bcb1236a  .#0..M...i....#j
 203a6c0 e86801aa 1844616a 00f022fe a26a019b  .h...Daj.."..j..
 203a6d0 9a4208d1 38b995f8 283043f0 040385f8  .B..8...(0C.....
 203a6e0 283003b0 30bd41f2 8e3003b0 30bd4ff0  (0..0.A..0..0.O.
 203a6f0 ff3003b0 30bd00bf e4c30302 002230b5  .0..0........"0.
 203a700 144c83b0 e5690192 2b7bda07 0ad49b07  .L...i..+{......
 203a710 0fd40020 94f82830 43f00803 84f82830  ... ..(0C.....(0
 203a720 03b030bd 2069fff7 f1fa78b9 2b7b9b07  ..0. i....x.+{..
 203a730 efd52069 01a9fff7 19fb18b9 aa68019b  .. i.........h..
 203a740 9a42e6d0 41f29030 03b030bd 41f28f30  .B..A..0..0.A..0
 203a750 e6e700bf e4c30302 01207047 30b597b0  ......... pG0...
 203a760 3c220021 07a801f0 2bfb0023 3c2207a9  <".!....+..#<"..
 203a770 0420cde9 0333cde9 0533fff7 b7fa1022  . ...3...3....."
 203a780 044603a9 0320fff7 b1fa0443 02d02046  .F... .....C.. F
 203a790 17b030bd bdf82c10 c1f30b01 0846fff7  ..0...,......F..
 203a7a0 dbffa0b3 bdf82820 c2f30b02 1046fff7  ......( .....F..
 203a7b0 d3ff60b3 bdf83030 c3f30b03 1846fff7  ..`...00.....F..
 203a7c0 cbff20b3 bdf82050 c5f30b05 2846fff7  .. ... P....(F..
 203a7d0 c3ffe0b1 0c982d03 c0f30b30 03440e48  ......-....0.D.H
 203a7e0 00958560 90f82850 090345f0 010580f8  ...`..(P..E.....
 203a7f0 2850039d 12034560 084d1b03 c0e90312  (P....E`.M......
 203a800 c0e90534 05600648 01f0e6fa bfe74ff0  ...4.`.H......O.
 203a810 ff342046 17b030bd e4c30302 13121212  .4 F..0.........
 203a820 34bb0302 044b0548 0549064a c3e90801  4....K.H.I.J....
 203a830 da610020 704700bf e4c30302 3cc40302  .a. pG......<...
 203a840 98c40302 10c40302 014b5868 704700bf  .........KXhpG..
 203a850 e4c30302 41f65653 024a9042 14bf1846  ....A.VS.J.B...F
 203a860 00207047 57555557 41f65953 b0f1807f  . pGWUUWA.YS....
 203a870 8cbf1846 00207047 10b590f8 3330194c  ...F. pG....30.L
 203a880 012be169 626a84f8 2b301cd0 032b0fd0  .+.ibj..+0...+..
 203a890 90f83c10 a469006c 01eb4101 89002044  ..<..i.l..A... D
 203a8a0 fef788fd 41f29833 002818bf 184610bd  ....A..3.(...F..
 203a8b0 816a2368 994210d0 94f82830 43f02003  .j#h.B....(0C. .
 203a8c0 84f82830 e4e78b68 816a9942 f4d1238d  ..(0...h.j.B..#.
 203a8d0 03f48173 022befd1 dae794f8 2930db07  ...s.+......)0..
 203a8e0 ead4d5e7 e4c30302 024608b5 fff7acff  .........F......
 203a8f0 11880346 884202d3 51888842 09d99188  ...F.B..Q..B....
 203a900 41f65a50 8b4203d3 d2889342 98bf0020  A.ZP.B.....B... 
 203a910 08bd0020 08bd00bf 45f24472 41f65753  ... ....E.DrA.WS
 203a920 904214bf 18460020 704700bf 41f65852  .B...F. pG..A.XR
 203a930 00f0fd03 012b14bf 10460020 704700bf  .....+...F. pG..
 203a940 002330b5 87b00d46 04461421 01aa1438  .#0....F.F.!...8
 203a950 cde90133 cde90333 0593fef7 2bfd98b9  ...3...3....+...
 203a960 234b059a 9a4211d1 049ba342 3dd2214a  #K...B.....B=.!J
 203a970 01999142 204a0dd0 92f82910 60f30001  ...B J....).`...
 203a980 82f82910 e31a2b60 07b030bd 41f2c930  ..)...+`..0.A..0
 203a990 07b030bd 4df6726c 92f82910 41f00101  ..0.M.rl..).A...
 203a9a0 82f82910 bdf80e10 614505d1 92f82910  ..).....aE....).
 203a9b0 41f01001 82f82910 4df67261 bdf80cc0  A.....).M.ra....
 203a9c0 8c4505d1 92f82910 41f00801 82f82910  .E....).A.....).
 203a9d0 4df67261 bdf80ac0 8c45d3d1 92f82910  M.ra.....E....).
 203a9e0 41f00401 82f82910 cce741f2 ca30cbe7  A.....)...A..0..
 203a9f0 57555557 4eb809a5 e4c30302 10b50c46  WUUWN..........F
 203aa00 0649fff7 9dff38b9 054b2246 bde81040  .I....8..K"F...@
 203aa10 5c219869 fef7cebc 10bd00bf fcc30302  \!.i............
 203aa20 e4c30302 10b50446 406afff7 1dffb8b9  .......F@j......
 203aa30 2068fff7 0fffc8b9 208efff7 6dff90b9   h...... ...m...
 203aa40 94f83300 0870fff7 71ff90b9 04f13400  ..3..p..q.....4.
 203aa50 fff74aff 41f65a53 002818bf 184610bd  ..J.A.ZS.(...F..
 203aa60 41f65950 10bd41f6 575010bd 41f65650  A.YP..A.WP..A.VP
 203aa70 10bd41f6 585010bd 002330b5 83b00df1  ..A.XP...#0.....
 203aa80 07010546 8df80730 fff7ccff 044610b1  ...F...0.....F..
 203aa90 204603b0 30bd05f1 5800fff7 19fb9df8   F..0...X.......
 203aaa0 0730012b 07d041f6 5c52032b 18bf1446  .0.+..A.\R.+...F
 203aab0 204603b0 30bd41f6 5b530028 18bf1c46   F..0.A.[S.(...F
 203aac0 204603b0 30bd00bf 002200b5 114983b0   F..0...."...I..
 203aad0 91f82930 019213f0 1c0009d0 c3f38200  ..)0............
 203aae0 5b0708d4 830712d4 801018bf 022003d1  [............ ..
 203aaf0 03b05df8 04fb1046 4a690023 a2f10e0c  ..]....FJi.#....
 203ab00 022101aa 0ceb4000 fef732fc f0e70120  .!....@...2.... 
 203ab10 f2e700bf e4c30302 f0b50024 114e83b0  ...........$.N..
 203ab20 96f82900 019410f0 1c0510d0 25467769  ..).........%Fwi
 203ab30 0e3f96f8 2930c3f3 82032341 13f0010f  .?..)0....#A....
 203ab40 04f10104 06d1032c 07f10207 f1d12846  .......,......(F
 203ab50 03b0f0bd 00233846 022101aa fef708fc  .....#8F.!......
 203ab60 0543f0e7 e4c30302 10b5084c 216a51b1  .C.........L!jQ.
 203ab70 6069fff7 43ff28b9 94f82930 43f00203  `i..C.(...)0C...
 203ab80 84f82930 10bd41f2 ee3010bd e4c30302  ..)0..A..0......
 203ab90 002030b5 1e4c89b0 256acde9 0000cde9  . 0..L..%j......
 203aba0 0200cde9 0400cde9 06004db3 94f82930  ..........M...)0
 203abb0 9b0725d5 174b1a78 0ab109b0 30bd0122  ..%..K.x....0.."
 203abc0 28461a70 fff758ff 0028f6d1 696aa069  (F.p..X..(..ij.i
 203abd0 6a462439 243000f0 c7fba8b9 20226946  jF$9$0...... "iF
 203abe0 281d01f0 85f878b9 2846fff7 45fe0028  (.....x.(F..E..(
 203abf0 e3d194f8 283043f0 400384f8 2830dce7  ....(0C.@...(0..
 203ac00 4ff0ff30 09b030bd 41f29730 d5e700bf  O..0..0.A..0....
 203ac10 e4c30302 b0c40302 70b5104d 95f82830  ........p..M..(0
 203ac20 5b0610d5 2e6afff7 3dfb0446 48b996f8  [....j..=..FH...
 203ac30 3330032b 0bd095f8 283043f0 800385f8  30.+....(0C.....
 203ac40 28302046 70bd41f2 9d342046 70bdfff7  (0 Fp.A..4 Fp...
 203ac50 c9fb0028 efd00446 f3e700bf e4c30302  ...(...F........
 203ac60 0023f0b5 244e89b0 756a0293 f5b12a78  .#..$N..uj....*x
 203ac70 d2071fd4 a9680291 c1b101f6 ff7121f4  .....h.......q!.
 203ac80 7f6121f0 0f01b068 fef75afb 2b780446  .a!....h..Z.+x.F
 203ac90 b7696868 03f00103 aa68b168 00933844  .ihh.....h.h..8D
 203aca0 029b00f0 85fb2043 09b0f0bd 4ff0ff30  ...... C....O..0
 203acb0 09b0f0bd cde90433 06938df8 1c30b069  .......3.....0.i
 203acc0 03936b68 0d211844 04aafef7 73fb0028  ..kh.!.D....s..(
 203acd0 ead10d21 03ab02aa 04a8fef7 21fc0028  ...!........!..(
 203ace0 e2d10d21 04a8fef7 63fc0028 dcd10299  ...!....c..(....
 203acf0 0029c2d1 dae700bf e4c30302 00b589b0  .)..............
 203ad00 20220021 684601f0 5bf82022 69460720   ".!hF..[. "iF. 
 203ad10 fef7ecff 18b90d4b 009a9a42 03d00120  .......K...B... 
 203ad20 09b05df8 04fb9df8 04309df8 05209a42  ..]......0... .B
 203ad30 f6d30133 20226946 07208df8 0430fef7  ...3 "iF. ...0..
 203ad40 d9ff0120 09b05df8 04fb00bf 554e5631  ... ..].....UNV1
 203ad50 8c460023 30b58469 dcf80400 87b01546  .F.#0..i.......F
 203ad60 0d2102aa 2044cde9 02330193 04938df8  .!.. D...3......
 203ad70 1430fef7 1ffb0d21 04462a46 02a801ab  .0.....!.F*F....
 203ad80 fef7cefb 204303d1 0d2102a8 fef710fc  .... C...!......
 203ad90 07b030bd f0b5374e 85b0746a 002c64d0  ..0...7N..tj.,d.
 203ada0 2378da07 53d4a368 0293002b 59d0237b  #x..S..h...+Y.#{
 203adb0 db073dd4 63690393 002b44d0 029d2e4f  ..=.ci...+D....O
 203adc0 05f6ff75 03f6ff73 3d402a46 1f40f168  ...u...s=@*F.@.h
 203add0 2a4800f0 91ff3a46 28483169 00f08cff  *H....:F(H1i....
 203ade0 2946f068 fef7acfa 39460546 3069fef7  )F.h....9F.F0i..
 203adf0 a7fa0146 2378a268 03f00103 60680093  ...F#x.h....`h..
 203ae00 b3690d43 1844f168 029b00f0 d1fa237b  .i.C.D.h......#{
 203ae10 21690746 b06903f0 01036269 08440093  !i.F.i....bi.D..
 203ae20 3169039b 00f0c4fa 3d432843 05b0f0bd  1i......=C(C....
 203ae30 104803aa 04f10c01 fff78aff 0028f5d1  .H...........(..
 203ae40 039b002b bad141f2 9c3005b0 f0bd2146  ...+..A..0....!F
 203ae50 304602aa fff77cff 0028e7d1 029b002b  0F....|..(.....+
 203ae60 a5d141f2 9b3005b0 f0bd4ff0 ff3005b0  ..A..0....O..0..
 203ae70 f0bd00bf e4c30302 00f0ffff 3cbb0302  ............<...
 203ae80 038843b9 837803f0 3f03012b 8cbf4ff4  ..C..x..?..+..O.
 203ae90 9e500020 70474ff4 9e507047 202310b5  .P. pGO..PpG #..
 203aea0 044690b0 00221946 684600f0 41ff6a46  .F...".FhF..A.jF
 203aeb0 4ff48061 204600f0 17ffc8b9 20230246  O..a F...... #.F
 203aec0 19460deb 030000f0 33ff0220 08a900f0  .F......3.. ....
 203aed0 53ff88b9 20226846 0deb0201 00f008ff  S... "hF........
 203aee0 41f2b333 00280cbf 00201846 10b010bd  A..3.(... .F....
 203aef0 41f2b130 10b010bd 41f2b230 10b010bd  A..0....A..0....
 203af00 4ff0ff33 f0b58db0 06460c46 092003a9  O..3.....F.F. ..
 203af10 039300f0 31ff0028 39d1a268 039b9a42  ....1..(9..h...B
 203af20 30d12369 b3f5807f 2cd16769 b7f5007f  0.#i....,.gi....
 203af30 28d1201d fff7a4ff 054628bb e3681f2b  (. ......F(..h.+
 203af40 2ad82023 02461946 04a800f0 f1fe4ff4  *. #.F.F......O.
 203af50 06712046 04aa00f0 c7fe00bb 04ab0093  .q F............
 203af60 a37904f5 067403f0 3f033a46 30460194  .y...t..?.:F0F..
 203af70 06f50071 00f004ff 41f2b833 002818bf  ...q....A..3.(..
 203af80 1d4601e0 41f2b535 28460db0 f0bd41f2  .F..A..5(F....A.
 203af90 b4352846 0db0f0bd 41f2b635 f4e741f2  .5(F....A..5..A.
 203afa0 b735f1e7 1823f0b5 91b00646 00220c46  .5...#.....F.".F
 203afb0 02a81946 00f0bcfe 012002a9 00f0dcfe  ...F..... ......
 203afc0 002840d1 182202a9 04f11000 00f090fe  .(@.."..........
 203afd0 00283dd1 e368182b 30d1a36a b3f5007f  .(=..h.+0..j....
 203afe0 2cd1d4f8 2c72b7f5 807f27d1 201dfff7  ,...,r....'. ...
 203aff0 47ff0546 88bb2023 02461946 0deb0300  G..F.. #.F.F....
 203b000 00f096fe 4ff40c71 204608aa 00f06cfe  ....O..q F....l.
 203b010 30bb08ab 0093a379 04f50c74 03f03f03  0......y...t..?.
 203b020 3a460194 06f58c71 06f11800 00f0a8fe  :F.....q........
 203b030 41f2bd33 002818bf 1d4601e0 41f2bb35  A..3.(...F..A..5
 203b040 284611b0 f0bd41f2 b9352846 11b0f0bd  (F....A..5(F....
 203b050 41f2ba35 284611b0 f0bd4ff4 9e55efe7  A..5(F....O..U..
 203b060 41f2bc35 ece700bf 2de9f041 1d462023  A..5....-..A.F #
 203b070 04468ab0 90460e46 00221946 02a89df8  .F...F.F.".F....
 203b080 407000f0 55fed4e9 000102aa 00f02cfe  @p..U.........,.
 203b090 90b902ac 3b464146 30464ff4 80720195  ....;FAF0FO..r..
 203b0a0 009400f0 6dfe41f2 bf330028 0cbf0020  ....m.A..3.(... 
 203b0b0 18460ab0 bde8f081 41f2be30 0ab0bde8  .F......A..0....
 203b0c0 f08100bf 0a69b2f5 806f02d0 41f2a930  .....i...o..A..0
 203b0d0 7047f0b5 cd680646 054485b0 28460c46  pG...h.F.D..(F.F
 203b0e0 fff7dcfe 28b9e369 b3f5836f 03d041f2  ....(..i...o..A.
 203b0f0 ab3005b0 f0bda269 2846b518 2946fff7  .0.....i(F..)F..
 203b100 fffe48bb 276acfb9 05f11801 05f58c72  ..H.'j.........r
 203b110 e36a02a8 33440293 a36a0393 636b94f8  .j..3D...j..ck..
 203b120 32403344 04f03f04 0094fff7 9dff41f2  2@3D..?.......A.
 203b130 ae330028 18bf1846 05b0f0bd 37443946  .3.(...F....7D9F
 203b140 2846fff7 2fff20b9 07f12c01 07f59672  (F../. ...,....r
 203b150 dee741f2 ad30cce7 41f2ac30 c9e700bf  ..A..0..A..0....
 203b160 70b50446 002382b0 21461e48 8df80330  p..F.#..!F.H...0
 203b170 00f03efe 1c4b2268 9a4203d1 1b4be26b  ..>..K"h.B...K.k
 203b180 9a4204d0 41f2a735 284602b0 70bd1020  .B..A..5(F..p.. 
 203b190 0df10301 00f0f0fd 0546e0b9 9df80330  .........F.....0
 203b1a0 012bf1d1 21462046 0195e66a fff78aff  .+..!F F...j....
 203b1b0 05460028 e8d10a20 01a900f0 ddfd68b9  .F.(... ......h.
 203b1c0 0b4800f0 9dfd41f2 b033a259 01991142  .H....A..3.Y...B
 203b1d0 18bf1d46 d8e741f2 a835d5e7 41f2af35  ...F..A..5..A..5
 203b1e0 d2e700bf 4cbb0302 aa55aa55 cc33cc33  ....L....U.U.3.3
 203b1f0 58bb0302 10b50446 0d482146 00f0f8fd  X......F.H!F....
 203b200 4ff00072 4ff4c831 2046fef7 d3f828b9  O..rO..1 F....(.
 203b210 bde81040 4ff00070 fdf7bcbf 054800f0  ...@O..p.....H..
 203b220 6ffdbde8 10404ff0 0070fdf7 b3bf00bf  o....@O..p......
 203b230 64bb0302 84b50302 00231a46 19461846  d........#.F.F.F
 203b240 00f0aebd 8c4608b5 044b1146 1b686246  .....F...K.F.hbF
 203b250 1844fef7 aff80020 08bd00bf b8c40302  .D..... ........
 203b260 10b51446 0a460449 00230968 08442146  ...F.F.I.#.h.D!F
 203b270 fef77ef8 204610bd b4c40302 2de9f84f  ..~. F......-..O
 203b280 14468146 88461f46 ddf828b0 00f05cfd  .F.F.F.F..(...\.
 203b290 b4b31e4e a8f10408 07eb040a 58f8043f  ...N........X..?
 203b2a0 002583b9 27e0d9f8 00003246 21462844  .%..'.....2F!F(D
 203b2b0 fef780f8 21463046 00f06afd d8f80030  ....!F0F..j....0
 203b2c0 2544ab42 17d95c1b 3a78b4f5 807f28bf  %D.B..\.:x....(.
 203b2d0 4ff48074 002ae6d1 d9f80020 4ff48071  O..t.*..... O..q
 203b2e0 30462346 2a4400f0 87fd0028 e2d04ff0  0F#F*D.....(..O.
 203b2f0 ff30bde8 f88f0137 574509f1 0409cdd1  .0.....7WE......
 203b300 5846bde8 f84f00f0 1bbd00bf bcc40302  XF...O..........
 203b310 2de9f047 0f469246 f1b10026 81463546  -..G.F.F...&.F5F
 203b320 dff84080 7c1bb4f5 807f28bf 4ff48074  ..@.|.....(.O..t
 203b330 42462146 09eb0500 fef73cf8 30462246  BF!F......<.0F"F
 203b340 4146fef7 cff82544 af420646 ead80020  AF....%D.B.F... 
 203b350 caf80060 bde8f087 0e460020 caf80060  ...`.....F. ...`
 203b360 bde8f087 bcc40302 2de9f843 0e468046  ........-..C.F.F
 203b370 914600f0 e9fca6b1 00240c4f 351bb5f5  .F.......$.O5...
 203b380 807f28bf 4ff48075 3a462946 08eb0400  ..(.O..u:F)F....
 203b390 fef710f8 2c442946 384600f0 f9fca642  ....,D)F8F.....B
 203b3a0 ecd84846 bde8f843 00f0cabc bcc40302  ..HF...C........
 203b3b0 2de9f043 002587b0 9df83840 80468946  -..C.%....8@.F.F
 203b3c0 1e46cde9 02550495 8df81450 dcb9b3b1  .F...U.....P....
 203b3d0 1b4f351b b5f5807f 28bf4ff4 80753a46  .O5.....(.O..u:F
 203b3e0 294608eb 0400fdf7 e5ff09eb 04000023  )F.............#
 203b3f0 3a462946 2c44fdf7 bbffa642 e9d80020  :F)F,D.....B... 
 203b400 07b0bde8 f0831746 00930b46 01460d48  .......F...F.F.H
 203b410 00f0e2fc 02aa0d21 4046fdf7 cbff0a4b  .......!@F.....K
 203b420 0a49c3f8 00800a4b 3a460093 02a8c1f8  .I.....K:F......
 203b430 0090084b 0d21fef7 8df807b0 bde8f083  ...K.!..........
 203b440 bcc40302 88bb0302 b8c40302 b4c40302  ................
 203b450 61b20302 45b20302 2de9f04f 00248bb0  a...E...-..O.$..
 203b460 07464ff4 80708846 92469b46 cde90244  .FO..p.F.F.F...D
 203b470 cde90444 cde90644 cde90844 ddf85090  ...D...D...D..P.
 203b480 00f052fc 50b34ff4 80730546 22460124  ..R.P.O..s.F"F.$
 203b490 194602ae 00f04cfc 85f8ff40 85f8fd40  .F....L....@...@
 203b4a0 5b465246 41463846 0096fff7 e7fe0446  [FRFAF8F.......F
 203b4b0 68b9d9f8 041099f8 0830d9f8 00004ff4  h........0....O.
 203b4c0 8072cde9 00612946 00f05afc 04462846  .r...a)F..Z..F(F
 203b4d0 00f032fc 20460bb0 bde8f08f 4ff0ff34  ..2. F......O..4
 203b4e0 20460bb0 bde8f08f 0a666c61 73682d62   F.......flash-b
 203b4f0 6f6f7420 00000000 32303233 2d30332d  oot ....2023-03-
 203b500 30372031 353a3030 3a303000 6275726e  07 15:00:00.burn
 203b510 20616464 72000000 666c6173 685f696e   addr...flash_in
 203b520 69745f66 61696c20 7265743d 00000000  it_fail ret=....
 203b530 666c6173 685f7061 72746974 696f6e5f  flash_partition_
 203b540 696e6974 20726574 3d000000 66616374  init ret=...fact
 203b550 6f72795f 6e765f72 65616420 7265743d  ory_nv_read ret=
 203b560 00000000 696e7465 72727570 74202420  ....interrupt $ 
 203b570 00000000 626f6f74 206b6572 6e656c20  ....boot kernel 
 203b580 2e2e2e00 53504920 666c6173 68207265  ....SPI flash re
 203b590 61642066 756c6c20 6b65726e 656c2046  ad full kernel F
 203b5a0 4c415348 20666169 6c656400 626f6f74  LASH failed.boot
 203b5b0 20757365 6420286d 73292069 73200000   used (ms) is ..
 203b5c0 53757070 6f727420 466c6173 68207072  Support Flash pr
 203b5d0 6f746563 74696f6e 2e000000 554e4b4e  otection....UNKN
 203b5e0 4f574e00 57323551 34300000 47443235  OWN.W25Q40..GD25
 203b5f0 51343000 57323551 31360000 dcb50302  Q40.W25Q16......
 203b600 00000000 00000000 00000001 1b000000  ................
 203b610 e4b50302 ef401300 00000000 00000800  .....@..........
 203b620 1a000300 ecb50302 c8401300 00000000  .........@......
 203b630 00000800 1a000300 f4b50302 ef401500  .............@..
 203b640 00000000 00002000 1a000300 00000000  ...... .........
 203b650 96300777 2c610eee ba510999 19c46d07  .0.w,a...Q....m.
 203b660 8ff46a70 35a563e9 a395649e 3288db0e  ..jp5.c...d.2...
 203b670 a4b8dc79 1ee9d5e0 88d9d297 2b4cb609  ...y........+L..
 203b680 bd7cb17e 072db8e7 911dbf90 6410b71d  .|.~.-......d...
 203b690 f220b06a 4871b9f3 de41be84 7dd4da1a  . .jHq...A..}...
 203b6a0 ebe4dd6d 51b5d4f4 c785d383 56986c13  ...mQ.......V.l.
 203b6b0 c0a86b64 7af962fd ecc9658a 4f5c0114  ..kdz.b...e.O\..
 203b6c0 d96c0663 633d0ffa f50d088d c8206e3b  .l.cc=....... n;
 203b6d0 5e10694c e44160d5 727167a2 d1e4033c  ^.iL.A`.rqg....<
 203b6e0 47d4044b fd850dd2 6bb50aa5 faa8b535  G..K....k......5
 203b6f0 6c98b242 d6c9bbdb 40f9bcac e36cd832  l..B....@....l.2
 203b700 755cdf45 cf0dd6dc 593dd1ab ac30d926  u\.E....Y=...0.&
 203b710 3a00de51 8051d7c8 1661d0bf b5f4b421  :..Q.Q...a.....!
 203b720 23c4b356 9995bacf 0fa5bdb8 9eb80228  #..V...........(
 203b730 0888055f b2d90cc6 24e90bb1 877c6f2f  ..._....$....|o/
 203b740 114c6858 ab1d61c1 3d2d66b6 9041dc76  .LhX..a.=-f..A.v
 203b750 0671db01 bc20d298 2a10d5ef 8985b171  .q... ..*......q
 203b760 1fb5b606 a5e4bf9f 33d4b8e8 a2c90778  ........3......x
 203b770 34f9000f 8ea80996 18980ee1 bb0d6a7f  4.............j.
 203b780 2d3d6d08 976c6491 015c63e6 f4516b6b  -=m..ld..\c..Qkk
 203b790 62616c1c d8306585 4e0062f2 ed95066c  bal..0e.N.b....l
 203b7a0 7ba5011b c1f40882 57c40ff5 c6d9b065  {.......W......e
 203b7b0 50e9b712 eab8be8b 7c88b9fc df1ddd62  P.......|......b
 203b7c0 492dda15 f37cd38c 654cd4fb 5861b24d  I-...|..eL..Xa.M
 203b7d0 ce51b53a 7400bca3 e230bbd4 41a5df4a  .Q.:t....0..A..J
 203b7e0 d795d83d 6dc4d1a4 fbf4d6d3 6ae96943  ...=m.......j.iC
 203b7f0 fcd96e34 468867ad d0b860da 732d0444  ..n4F.g...`.s-.D
 203b800 e51d0333 5f4c0aaa c97c0ddd 3c710550  ...3_L...|..<q.P
 203b810 aa410227 10100bbe 86200cc9 25b56857  .A.'..... ..%.hW
 203b820 b3856f20 09d466b9 9fe461ce 0ef9de5e  ..o ..f...a....^
 203b830 98c9d929 2298d0b0 b4a8d7c7 173db359  ...)"........=.Y
 203b840 810db42e 3b5cbdb7 ad6cbac0 2083b8ed  ....;\...l.. ...
 203b850 b6b3bf9a 0ce2b603 9ad2b174 3947d5ea  ...........t9G..
 203b860 af77d29d 1526db04 8316dc73 120b63e3  .w...&.....s..c.
 203b870 843b6494 3e6a6d0d a85a6a7a 0bcf0ee4  .;d.>jm..Zjz....
 203b880 9dff0993 27ae000a b19e077d 44930ff0  ....'......}D...
 203b890 d2a30887 68f2011e fec20669 5d5762f7  ....h......i]Wb.
 203b8a0 cb676580 71366c19 e7066b6e 761bd4fe  .ge.q6l...knv...
 203b8b0 e02bd389 5a7ada10 cc4add67 6fdfb9f9  .+..Zz...J.go...
 203b8c0 f9efbe8e 43beb717 d58eb060 e8a3d6d6  ....C......`....
 203b8d0 7e93d1a1 c4c2d838 52f2df4f f167bbd1  ~......8R..O.g..
 203b8e0 6757bca6 dd06b53f 4b36b248 da2b0dd8  gW.....?K6.H.+..
 203b8f0 4c1b0aaf f64a0336 607a0441 c3ef60df  L....J.6`z.A..`.
 203b900 55df67a8 ef8e6e31 79be6946 8cb361cb  U.g...n1y.iF..a.
 203b910 1a8366bc a0d26f25 36e26852 95770ccc  ..f...o%6.hR.w..
 203b920 03470bbb b9160222 2f260555 be3bbac5  .G....."/&.U.;..
 203b930 280bbdb2 925ab42b 046ab35c a7ffd7c2  (....Z.+.j.\....
 203b940 31cfd0b5 8b9ed92c 1daede5b b0c2649b  1......,...[..d.
 203b950 26f263ec 9ca36a75 0a936d02 a906099c  &.c...ju..m.....
 203b960 3f360eeb 85670772 13570005 824abf95  ?6...g.r.W...J..
 203b970 147ab8e2 ae2bb17b 381bb60c 9b8ed292  .z...+.{8.......
 203b980 0dbed5e5 b7efdc7c 21dfdb0b d4d2d386  .......|!.......
 203b990 42e2d4f1 f8b3dd68 6e83da1f cd16be81  B......hn.......
 203b9a0 5b26b9f6 e177b06f 7747b718 e65a0888  [&...w.owG...Z..
 203b9b0 706a0fff ca3b0666 5c0b0111 ff9e658f  pj...;.f\.....e.
 203b9c0 69ae62f8 d3ff6b61 45cf6c16 78e20aa0  i.b...kaE.l.x...
 203b9d0 eed20dd7 5483044e c2b30339 612667a7  ....T..N...9a&g.
 203b9e0 f71660d0 4d476949 db776e3e 4a6ad1ae  ..`.MGiI.wn>Jj..
 203b9f0 dc5ad6d9 660bdf40 f03bd837 53aebca9  .Z..f..@.;.7S...
 203ba00 c59ebbde 7fcfb247 e9ffb530 1cf2bdbd  .......G...0....
 203ba10 8ac2baca 3093b353 a6a3b424 0536d0ba  ....0..S...$.6..
 203ba20 9306d7cd 2957de54 bf67d923 2e7a66b3  ....)W.T.g.#.zf.
 203ba30 b84a61c4 021b685d 942b6f2a 37be0bb4  .Ja...h].+o*7...
 203ba40 a18e0cc3 1bdf055a 8def022d 0a204c5a  .......Z...-. LZ
 203ba50 4d415f41 6c6c6f63 20666169 6c3d2000  MA_Alloc fail= .
 203ba60 61646472 20000000 73656375 72652062  addr ...secure b
 203ba70 6f6f7400 756e7365 63757265 20626f6f  oot.unsecure boo
 203ba80 74000000 75706720 7369675f 31200000  t...upg sig_1 ..
 203ba90 75706720 7369675f 32200000 75706720  upg sig_2 ..upg 
 203baa0 6b65795f 6e5f3220 00000000 626f6f74  key_n_2 ....boot
 203bab0 5f757067 5f70726f 63657373 20726561  _upg_process rea
 203bac0 736f6e3d 00000000 626f6f74 5f757067  son=....boot_upg
 203bad0 5f70726f 63657373 5f706861 73653120  _process_phase1 
 203bae0 7265743d 00000000 424f4f54 5f50414e  ret=....BOOT_PAN
 203baf0 49433d00 0a5b5052 4f434553 535d626f  IC=..[PROCESS]bo
 203bb00 6f745f73 74617274 206d6167 69633d00  ot_start magic=.
 203bb10 7570675f 696e666f 00000000 70686131  upg_info....pha1
 203bb20 20726574 3d000000 70683120 7265743d   ret=...ph1 ret=
 203bb30 00000000 656e763d 20000000 5b4c4f47  ....env= ...[LOG
 203bb40 5d5b5550 475d6572 61736500 76657269  ][UPG]erase.veri
 203bb50 6679313d 00000000 76657269 66793131  fy1=....verify11
 203bb60 00000000 626f6f74 206b6572 6e656c20  ....boot kernel 
 203bb70 61743d3d 3d3d3d3d 3d3d3d3d 3d3d3d3d  at==============
 203bb80 3d3d3d3d 00000000 0a20636f 70797a20  ====..... copyz 
 203bb90 70617261 6d000000 024b586a c0f34000  param....KXj..@.
 203bba0 704700bf 00000340 f0b50027 83b00546  pG.....@...'...F
 203bbb0 1e461446 01972abb b6b90120 00f0a8f8  .F.F..*.... ....
 203bbc0 80b94ff0 8043013c c3f80853 6402019a  ..O..C.<...Sd...
 203bbd0 04f4ff34 44f08304 c3f80024 c3f80043  ...4D......$...C
 203bbe0 00f00ef9 03b0f0bd 4ff08043 50210322  ........O..CP!."
 203bbf0 c3f80813 c3f80023 00f002f9 0028e0d0  .......#.....(..
 203bc00 03b0f0bd 0a460421 23460deb 010000f0  .....F.!#F......
 203bc10 f3f80028 d0d03846 03b0f0bd f0b50024  ...(..8F.......$
 203bc20 83b00546 0e460122 052001a9 adf80440  ...F.F.". .....@
 203bc30 00f0aaf8 044610b1 204603b0 f0bd0122  .....F.. F....."
 203bc40 35200df1 050100f0 9ff80446 0028f3d1  5 .........F.(..
 203bc50 9df80420 05f01f03 02f07c01 b1eb830f  ... ......|.....
 203bc60 4fea8307 c5f34015 9df80530 04d103f0  O.....@....0....
 203bc70 4001b1eb 851fdfd0 22f07c02 23f04003  @.......".|.#.@.
 203bc80 3a4343ea 85138df8 04208df8 05300222  :CC...... ...0."
 203bc90 33460120 01a9fff7 87ff18b1 04462046  3F. .........F F
 203bca0 03b0f0bd 01220520 01a900f0 6df80028  .....". ....m..(
 203bcb0 f4d10122 35200df1 050100f0 65f80028  ..."5 ......e..(
 203bcc0 ecd19df8 043003f0 7c039f42 06d19df8  .....0..|..B....
 203bcd0 053003f0 4003b3eb 851fadd0 bdf80440  .0..@..........@
 203bce0 aae700bf 00000000 5ff800f0 a5450100  ........_....E..
 203bcf0 5ff800f0 39670100 5ff800f0 ad430100  _...9g.._....C..
 203bd00 5ff800f0 79430100 5ff800f0 b9630100  _...yC.._....c..
 203bd10 5ff800f0 192e0100 5ff800f0 014b0100  _......._....K..
 203bd20 5ff800f0 596d0100 5ff800f0 c5630100  _...Ym.._....c..
 203bd30 5ff800f0 a9650100 5ff800f0 d1630100  _....e.._....c..
 203bd40 5ff800f0 59450100 5ff800f0 59440100  _...YE.._...YD..
 203bd50 5ff800f0 fd650100 5ff800f0 89330100  _....e.._....3..
 203bd60 5ff800f0 ed420100 5ff800f0 9d190100  _....B.._.......
 203bd70 5ff800f0 55340100 5ff800f0 89260100  _...U4.._....&..
 203bd80 5ff800f0 653b0100 5ff800f0 b52c0100  _...e;.._....,..
 203bd90 5ff800f0 b1440100 5ff800f0 e1310100  _....D.._....1..
 203bda0 5ff800f0 01080100 5ff800f0 99630100  _......._....c..
 203bdb0 5ff800f0 61340100 5ff800f0 bd340100  _...a4.._....4..
 203bdc0 5ff800f0 ed660100 5ff800f0 214b0100  _....f.._...!K..
 203bdd0 5ff800f0 89120100 5ff800f0 e1430100  _......._....C..
 203bde0 5ff800f0 cd610100 5ff800f0 714a0100  _....a.._...qJ..
 203bdf0 5ff800f0 8d430100 5ff800f0 65650100  _....C.._...ee..
 203be00 5ff800f0 452c0100                    _...E,..        
Contents of section .data:
 203be08 b1d7940d 16c3ef0e 945c93c2 c8e3619e  .........\....a.
 203be18 7ca13587 71be01c3 68f26ea2 6db45024  |.5.q...h.n.m.P$
 203be28 5aeafe18 734798f6 46e7b3db ceaf798f  Z...sG..F.....y.
 203be38 f3e07ccd db60b1a9 8f72a014 de4fa0ad  ..|..`...r...O..
 203be48 0570bfae bf65ce61 9742c6f9 46bb1a19  .p...e.a.B..F...
 203be58 0c501154 b05e2afe abcfe2b6 3f370e4d  .P.T.^*.....?7.M
 203be68 0e1d69db f1d07d46 6e181959 8e3dddbd  ..i...}Fn..Y.=..
 203be78 9d9a6b4d 5d225ced fa07bffa 4a60b838  ..kM]"\.....J`.8
 203be88 ee1c927c 11012a1b c1177c25 475fe761  ...|..*...|%G_.a
 203be98 3f77c71b 852a83dd e4d77e45 4c73756f  ?w...*....~ELsuo
 203bea8 2808e940 b81a5152 13ddc3fb ee4883ec  (..@..QR.....H..
 203beb8 7a682caf 2fefdc5e daf2910e c1cdc9ab  zh,./..^........
 203bec8 6234dde6 871529d8 815ba2df 0d65cda6  b4....)..[...e..
 203bed8 fcfe51e1 b4af0af0 6ed9a0fb 50f7fbbb  ..Q.....n...P...
 203bee8 33f0edf9 01cde357 c74aaece 90a129d7  3......W.J....).
 203bef8 e1a0521b 9c378165 925cf332 d223df33  ..R..7.e.\.2.#.3
Contents of section .ARM.attributes:
 0000 412e0000 00616561 62690001 24000000  A....aeabi..$...
 0010 05436f72 7465782d 4d330006 0a074d09  .Cortex-M3....M.
 0020 02120414 01150117 0318011a 012201    .............". 
Contents of section .comment:
 0000 4743433a 2028474e 55204172 6d20456d  GCC: (GNU Arm Em
 0010 62656464 65642054 6f6f6c63 6861696e  bedded Toolchain
 0020 2031302e 332d3230 32312e30 37292031   10.3-2021.07) 1
 0030 302e332e 31203230 32313036 32312028  0.3.1 20210621 (
 0040 72656c65 61736529 00                 release).       

Disassembly of section .text.isr_vector:

01000c00 <g_pfnVectors>:
 1000c00:	0203effc 	andeq	lr, r3, #252, 30	; 0x3f0
 1000c04:	01000c41 	tsteq	r0, r1, asr #24
 1000c08:	02039001 	andeq	r9, r3, #1
 1000c0c:	02039001 	andeq	r9, r3, #1
 1000c10:	02039001 	andeq	r9, r3, #1
 1000c14:	02039001 	andeq	r9, r3, #1
 1000c18:	02039001 	andeq	r9, r3, #1
 1000c1c:	02039001 	andeq	r9, r3, #1
 1000c20:	02039001 	andeq	r9, r3, #1
 1000c24:	02039001 	andeq	r9, r3, #1
 1000c28:	02039001 	andeq	r9, r3, #1
 1000c2c:	02039001 	andeq	r9, r3, #1
 1000c30:	02039001 	andeq	r9, r3, #1
 1000c34:	02039001 	andeq	r9, r3, #1
 1000c38:	02039001 	andeq	r9, r3, #1
 1000c3c:	02039001 	andeq	r9, r3, #1

01000c40 <Reset_Handler>:
 1000c40:	4824      	ldr	r0, [pc, #144]	; (1000cd4 <end_set_ram_loop+0x4>)
 1000c42:	f380 8808 	msr	MSP, r0
 1000c46:	4824      	ldr	r0, [pc, #144]	; (1000cd8 <end_set_ram_loop+0x8>)
 1000c48:	f04f 0101 	mov.w	r1, #1
 1000c4c:	6001      	str	r1, [r0, #0]
 1000c4e:	4823      	ldr	r0, [pc, #140]	; (1000cdc <end_set_ram_loop+0xc>)
 1000c50:	4923      	ldr	r1, [pc, #140]	; (1000ce0 <end_set_ram_loop+0x10>)
 1000c52:	6001      	str	r1, [r0, #0]
 1000c54:	4823      	ldr	r0, [pc, #140]	; (1000ce4 <end_set_ram_loop+0x14>)
 1000c56:	f240 2199 	movw	r1, #665	; 0x299
 1000c5a:	6001      	str	r1, [r0, #0]
 1000c5c:	481f      	ldr	r0, [pc, #124]	; (1000cdc <end_set_ram_loop+0xc>)
 1000c5e:	4922      	ldr	r1, [pc, #136]	; (1000ce8 <end_set_ram_loop+0x18>)
 1000c60:	6001      	str	r1, [r0, #0]
 1000c62:	4922      	ldr	r1, [pc, #136]	; (1000cec <end_set_ram_loop+0x1c>)
 1000c64:	4b22      	ldr	r3, [pc, #136]	; (1000cf0 <end_set_ram_loop+0x20>)

01000c66 <stack_fill>:
 1000c66:	1a5b      	subs	r3, r3, r1
 1000c68:	d004      	beq.n	1000c74 <stack_fill_loop_end>
 1000c6a:	4a22      	ldr	r2, [pc, #136]	; (1000cf4 <end_set_ram_loop+0x24>)

01000c6c <stack_fill_loop>:
 1000c6c:	600a      	str	r2, [r1, #0]
 1000c6e:	3104      	adds	r1, #4
 1000c70:	3b04      	subs	r3, #4
 1000c72:	dcfb      	bgt.n	1000c6c <stack_fill_loop>

01000c74 <stack_fill_loop_end>:
 1000c74:	4920      	ldr	r1, [pc, #128]	; (1000cf8 <end_set_ram_loop+0x28>)
 1000c76:	4b21      	ldr	r3, [pc, #132]	; (1000cfc <end_set_ram_loop+0x2c>)
 1000c78:	4299      	cmp	r1, r3
 1000c7a:	d006      	beq.n	1000c8a <end_clear_bss_loop>
 1000c7c:	f04f 0200 	mov.w	r2, #0

01000c80 <clear_bss_loop>:
 1000c80:	600a      	str	r2, [r1, #0]
 1000c82:	3104      	adds	r1, #4
 1000c84:	4299      	cmp	r1, r3
 1000c86:	d1fb      	bne.n	1000c80 <clear_bss_loop>
 1000c88:	600a      	str	r2, [r1, #0]

01000c8a <end_clear_bss_loop>:
 1000c8a:	491d      	ldr	r1, [pc, #116]	; (1000d00 <end_set_ram_loop+0x30>)
 1000c8c:	4b1d      	ldr	r3, [pc, #116]	; (1000d04 <end_set_ram_loop+0x34>)
 1000c8e:	4299      	cmp	r1, r3
 1000c90:	d006      	beq.n	1000ca0 <end_clear_rom_bss_loop>
 1000c92:	f04f 0200 	mov.w	r2, #0

01000c96 <clear_rom_bss_loop>:
 1000c96:	600a      	str	r2, [r1, #0]
 1000c98:	3104      	adds	r1, #4
 1000c9a:	4299      	cmp	r1, r3
 1000c9c:	d1fb      	bne.n	1000c96 <clear_rom_bss_loop>
 1000c9e:	600a      	str	r2, [r1, #0]

01000ca0 <end_clear_rom_bss_loop>:
 1000ca0:	4919      	ldr	r1, [pc, #100]	; (1000d08 <end_set_ram_loop+0x38>)
 1000ca2:	4a1a      	ldr	r2, [pc, #104]	; (1000d0c <end_set_ram_loop+0x3c>)
 1000ca4:	4b1a      	ldr	r3, [pc, #104]	; (1000d10 <end_set_ram_loop+0x40>)
 1000ca6:	2b00      	cmp	r3, #0
 1000ca8:	d006      	beq.n	1000cb8 <end_rom_data_loop>

01000caa <start_rom_data_loop>:
 1000caa:	6814      	ldr	r4, [r2, #0]
 1000cac:	600c      	str	r4, [r1, #0]
 1000cae:	3204      	adds	r2, #4
 1000cb0:	3104      	adds	r1, #4
 1000cb2:	3b04      	subs	r3, #4
 1000cb4:	2b00      	cmp	r3, #0
 1000cb6:	d1f8      	bne.n	1000caa <start_rom_data_loop>

01000cb8 <end_rom_data_loop>:
 1000cb8:	4916      	ldr	r1, [pc, #88]	; (1000d14 <end_set_ram_loop+0x44>)
 1000cba:	4a17      	ldr	r2, [pc, #92]	; (1000d18 <end_set_ram_loop+0x48>)
 1000cbc:	4b17      	ldr	r3, [pc, #92]	; (1000d1c <end_set_ram_loop+0x4c>)
 1000cbe:	2b00      	cmp	r3, #0
 1000cc0:	d006      	beq.n	1000cd0 <end_set_ram_loop>

01000cc2 <set_ram_loop>:
 1000cc2:	6814      	ldr	r4, [r2, #0]
 1000cc4:	600c      	str	r4, [r1, #0]
 1000cc6:	3204      	adds	r2, #4
 1000cc8:	3104      	adds	r1, #4
 1000cca:	3b04      	subs	r3, #4
 1000ccc:	2b00      	cmp	r3, #0
 1000cce:	d1f8      	bne.n	1000cc2 <set_ram_loop>

01000cd0 <end_set_ram_loop>:
 1000cd0:	f000 f826 	bl	1000d20 <__start_fastboot_veneer>
 1000cd4:	0203effc 	andeq	lr, r3, #252, 30	; 0x3f0
 1000cd8:	4003b05c 	andmi	fp, r3, ip, asr r0
 1000cdc:	4003d300 	andmi	sp, r3, r0, lsl #6
 1000ce0:	1a802fb3 	bne	ff00cbb4 <__rom_bss_end+0xfcfcd38c>
 1000ce4:	4003d304 	andmi	sp, r3, r4, lsl #6
 1000ce8:	1a802fb8 	bne	ff00cbd0 <__rom_bss_end+0xfcfcd3a8>
 1000cec:	0203d000 	andeq	sp, r3, #0
 1000cf0:	0203f000 	andeq	pc, r3, #0
 1000cf4:	deadbeef 	cdple	14, 10, cr11, cr13, cr15, {7}
 1000cf8:	0203bf08 	andeq	fp, r3, #8, 30
 1000cfc:	0203c5bc 	andeq	ip, r3, #188, 10	; 0x2f000000
 1000d00:	0203f224 	andeq	pc, r3, #36, 4	; 0x40000002
 1000d04:	0203f828 	andeq	pc, r3, #40, 16	; 0x280000
 1000d08:	0203f000 	andeq	pc, r3, #0
 1000d0c:	00017d7c 	andeq	r7, r1, ip, ror sp
 1000d10:	00000224 	andeq	r0, r0, r4, lsr #4
 1000d14:	02039000 	andeq	r9, r3, #0
 1000d18:	01000d28 	tsteq	r0, r8, lsr #26
 1000d1c:	00002f08 	andeq	r2, r0, r8, lsl #30

01000d20 <__start_fastboot_veneer>:
 1000d20:	f85f f000 	ldr.w	pc, [pc]	; 1000d24 <__start_fastboot_veneer+0x4>
 1000d24:	02039205 	andeq	r9, r3, #1342177280	; 0x50000000

Disassembly of section .rom.text:

00010800 <.rom.text>:
	...

Disassembly of section .u_boot_cmd:

0203f000 <__rom_copy_ram_start>:
	...

Disassembly of section .rom.data:

0203f12c <__rom_copy_ram_end-0xf8>:
	...

Disassembly of section .rom.bss:

0203f224 <__rom_bss_start>:
	...

Disassembly of section .text:

02039000 <hard_reset>:
 2039000:	4a01      	ldr	r2, [pc, #4]	; (2039008 <hard_reset+0x8>)
 2039002:	f04f 0101 	mov.w	r1, #1
 2039006:	6011      	str	r1, [r2, #0]
 2039008:	40030004 	andmi	r0, r3, r4

0203900c <start_fast_boot_print_msg>:
 203900c:	b570      	push	{r4, r5, r6, lr}
 203900e:	4606      	mov	r6, r0
 2039010:	460d      	mov	r5, r1
 2039012:	4812      	ldr	r0, [pc, #72]	; (203905c <start_fast_boot_print_msg+0x50>)
 2039014:	4912      	ldr	r1, [pc, #72]	; (2039060 <start_fast_boot_print_msg+0x54>)
 2039016:	4614      	mov	r4, r2
 2039018:	f002 feea 	bl	203bdf0 <__boot_msg1_veneer>
 203901c:	4811      	ldr	r0, [pc, #68]	; (2039064 <start_fast_boot_print_msg+0x58>)
 203901e:	f002 fe6f 	bl	203bd00 <__boot_msg0_veneer>
 2039022:	4b11      	ldr	r3, [pc, #68]	; (2039068 <start_fast_boot_print_msg+0x5c>)
 2039024:	4811      	ldr	r0, [pc, #68]	; (203906c <start_fast_boot_print_msg+0x60>)
 2039026:	6859      	ldr	r1, [r3, #4]
 2039028:	f002 fee2 	bl	203bdf0 <__boot_msg1_veneer>
 203902c:	b976      	cbnz	r6, 203904c <start_fast_boot_print_msg+0x40>
 203902e:	b90d      	cbnz	r5, 2039034 <start_fast_boot_print_msg+0x28>
 2039030:	b934      	cbnz	r4, 2039040 <start_fast_boot_print_msg+0x34>
 2039032:	bd70      	pop	{r4, r5, r6, pc}
 2039034:	4629      	mov	r1, r5
 2039036:	480e      	ldr	r0, [pc, #56]	; (2039070 <start_fast_boot_print_msg+0x64>)
 2039038:	f002 feda 	bl	203bdf0 <__boot_msg1_veneer>
 203903c:	2c00      	cmp	r4, #0
 203903e:	d0f8      	beq.n	2039032 <start_fast_boot_print_msg+0x26>
 2039040:	4621      	mov	r1, r4
 2039042:	e8bd 4070 	ldmia.w	sp!, {r4, r5, r6, lr}
 2039046:	480b      	ldr	r0, [pc, #44]	; (2039074 <start_fast_boot_print_msg+0x68>)
 2039048:	f002 bed2 	b.w	203bdf0 <__boot_msg1_veneer>
 203904c:	4631      	mov	r1, r6
 203904e:	480a      	ldr	r0, [pc, #40]	; (2039078 <start_fast_boot_print_msg+0x6c>)
 2039050:	f002 fece 	bl	203bdf0 <__boot_msg1_veneer>
 2039054:	2d00      	cmp	r5, #0
 2039056:	d0eb      	beq.n	2039030 <start_fast_boot_print_msg+0x24>
 2039058:	e7ec      	b.n	2039034 <start_fast_boot_print_msg+0x28>
 203905a:	bf00      	nop
 203905c:	0203b4e8 	andeq	fp, r3, #232, 8	; 0xe8000000
 2039060:	8000000c 	andhi	r0, r0, ip
 2039064:	0203b4f8 	andeq	fp, r3, #248, 8	; 0xf8000000
 2039068:	0203f228 	andeq	pc, r3, #40, 4	; 0x80000002
 203906c:	0203b50c 	andeq	fp, r3, #12, 10	; 0x3000000
 2039070:	0203b530 	andeq	fp, r3, #48, 10	; 0xc000000
 2039074:	0203b54c 	andeq	fp, r3, #76, 10	; 0x13000000
 2039078:	0203b518 	andeq	fp, r3, #24, 10	; 0x6000000

0203907c <soft_value_init>:
 203907c:	f44f 21e8 	mov.w	r1, #475136	; 0x74000
 2039080:	b430      	push	{r4, r5}
 2039082:	f04f 7200 	mov.w	r2, #33554432	; 0x2000000
 2039086:	f44f 45c0 	mov.w	r5, #24576	; 0x6000
 203908a:	2003      	movs	r0, #3
 203908c:	2404      	movs	r4, #4
 203908e:	4b0b      	ldr	r3, [pc, #44]	; (20390bc <soft_value_init+0x40>)
 2039090:	6099      	str	r1, [r3, #8]
 2039092:	490b      	ldr	r1, [pc, #44]	; (20390c0 <soft_value_init+0x44>)
 2039094:	e9c3 2500 	strd	r2, r5, [r3]
 2039098:	e9c3 4104 	strd	r4, r1, [r3, #16]
 203909c:	4d09      	ldr	r5, [pc, #36]	; (20390c4 <soft_value_init+0x48>)
 203909e:	4c0a      	ldr	r4, [pc, #40]	; (20390c8 <soft_value_init+0x4c>)
 20390a0:	f883 0024 	strb.w	r0, [r3, #36]	; 0x24
 20390a4:	4809      	ldr	r0, [pc, #36]	; (20390cc <soft_value_init+0x50>)
 20390a6:	60da      	str	r2, [r3, #12]
 20390a8:	e9c3 5006 	strd	r5, r0, [r3, #24]
 20390ac:	621c      	str	r4, [r3, #32]
 20390ae:	210d      	movs	r1, #13
 20390b0:	bc30      	pop	{r4, r5}
 20390b2:	4a07      	ldr	r2, [pc, #28]	; (20390d0 <soft_value_init+0x54>)
 20390b4:	f103 0025 	add.w	r0, r3, #37	; 0x25
 20390b8:	f002 be4a 	b.w	203bd50 <__strcpy_s_veneer>
 20390bc:	0203f228 	andeq	pc, r3, #40, 4	; 0x80000002
 20390c0:	02017000 	andeq	r7, r1, #0
 20390c4:	02039000 	andeq	r9, r3, #0
 20390c8:	0203be08 	andeq	fp, r3, #8, 28	; 0x80
 20390cc:	0203be08 	andeq	fp, r3, #8, 28	; 0x80
 20390d0:	0203b564 	andeq	fp, r3, #100, 10	; 0x19000000

020390d4 <fast_boot_malloc_funcs_init>:
 20390d4:	b500      	push	{lr}
 20390d6:	4a09      	ldr	r2, [pc, #36]	; (20390fc <fast_boot_malloc_funcs_init+0x28>)
 20390d8:	b085      	sub	sp, #20
 20390da:	4909      	ldr	r1, [pc, #36]	; (2039100 <fast_boot_malloc_funcs_init+0x2c>)
 20390dc:	4b09      	ldr	r3, [pc, #36]	; (2039104 <fast_boot_malloc_funcs_init+0x30>)
 20390de:	a801      	add	r0, sp, #4
 20390e0:	e9cd 1201 	strd	r1, r2, [sp, #4]
 20390e4:	9303      	str	r3, [sp, #12]
 20390e6:	f002 fe5f 	bl	203bda8 <__uapi_register_malloc_veneer>
 20390ea:	4b07      	ldr	r3, [pc, #28]	; (2039108 <fast_boot_malloc_funcs_init+0x34>)
 20390ec:	e9d3 0105 	ldrd	r0, r1, [r3, #20]
 20390f0:	f002 fe0a 	bl	203bd08 <__boot_malloc_init_veneer>
 20390f4:	b005      	add	sp, #20
 20390f6:	f85d fb04 	ldr.w	pc, [sp], #4
 20390fa:	bf00      	nop
 20390fc:	00016459 	andeq	r6, r1, r9, asr r4
 2039100:	000163dd 	ldrdeq	r6, [r1], -sp
 2039104:	0001652d 	andeq	r6, r1, sp, lsr #10
 2039108:	0203f228 	andeq	pc, r3, #40, 4	; 0x80000002

0203910c <fastboot_debug_uart_init>:
 203910c:	f44f 32e1 	mov.w	r2, #115200	; 0x1c200
 2039110:	2302      	movs	r3, #2
 2039112:	2001      	movs	r0, #1
 2039114:	4905      	ldr	r1, [pc, #20]	; (203912c <fastboot_debug_uart_init+0x20>)
 2039116:	b084      	sub	sp, #16
 2039118:	e9cd 2101 	strd	r2, r1, [sp, #4]
 203911c:	9303      	str	r3, [sp, #12]
 203911e:	ab04      	add	r3, sp, #16
 2039120:	e913 000e 	ldmdb	r3, {r1, r2, r3}
 2039124:	b004      	add	sp, #16
 2039126:	f002 be1b 	b.w	203bd60 <__serial_init_veneer>
 203912a:	bf00      	nop
 203912c:	00020008 	andeq	r0, r2, r8

02039130 <fastboot_flash_funcs_init>:
 2039130:	b510      	push	{r4, lr}
 2039132:	4908      	ldr	r1, [pc, #32]	; (2039154 <fastboot_flash_funcs_init+0x24>)
 2039134:	b084      	sub	sp, #16
 2039136:	4a08      	ldr	r2, [pc, #32]	; (2039158 <fastboot_flash_funcs_init+0x28>)
 2039138:	4b08      	ldr	r3, [pc, #32]	; (203915c <fastboot_flash_funcs_init+0x2c>)
 203913a:	4c09      	ldr	r4, [pc, #36]	; (2039160 <fastboot_flash_funcs_init+0x30>)
 203913c:	4668      	mov	r0, sp
 203913e:	e9cd 4100 	strd	r4, r1, [sp]
 2039142:	e9cd 2302 	strd	r2, r3, [sp, #8]
 2039146:	f002 fe43 	bl	203bdd0 <__uapi_cmd_regist_flash_cmd_veneer>
 203914a:	f000 f94d 	bl	20393e8 <uapi_flash_init>
 203914e:	b004      	add	sp, #16
 2039150:	bd10      	pop	{r4, pc}
 2039152:	bf00      	nop
 2039154:	020393b5 	andeq	r9, r3, #-738197502	; 0xd4000002
 2039158:	02039371 	andeq	r9, r3, #-1006632959	; 0xc4000001
 203915c:	02039341 	andeq	r9, r3, #67108865	; 0x4000001
 2039160:	020393e9 	andeq	r9, r3, #-1543503869	; 0xa4000003

02039164 <start_fast_boot_init>:
 2039164:	b508      	push	{r3, lr}
 2039166:	f002 fdd7 	bl	203bd18 <__uapi_watchdog_disable_veneer>
 203916a:	4806      	ldr	r0, [pc, #24]	; (2039184 <start_fast_boot_init+0x20>)
 203916c:	f002 fe2c 	bl	203bdc8 <__uapi_watchdog_enable_veneer>
 2039170:	f7ff ff84 	bl	203907c <soft_value_init>
 2039174:	f7ff ffae 	bl	20390d4 <fast_boot_malloc_funcs_init>
 2039178:	f7ff ffc8 	bl	203910c <fastboot_debug_uart_init>
 203917c:	e8bd 4008 	ldmia.w	sp!, {r3, lr}
 2039180:	f7ff bfd6 	b.w	2039130 <fastboot_flash_funcs_init>
 2039184:	014fb180 	smlalbbeq	fp, pc, r0, r1	; <UNPREDICTABLE>

02039188 <uint_2_multiply.constprop.0>:
 2039188:	b109      	cbz	r1, 203918e <uint_2_multiply.constprop.0+0x6>
 203918a:	0300      	lsls	r0, r0, #12
 203918c:	6008      	str	r0, [r1, #0]
 203918e:	2001      	movs	r0, #1
 2039190:	4770      	bx	lr
 2039192:	bf00      	nop

02039194 <boot_kernel>:
 2039194:	3001      	adds	r0, #1
 2039196:	4700      	bx	r0

02039198 <boot_firmware>:
 2039198:	b510      	push	{r4, lr}
 203919a:	4818      	ldr	r0, [pc, #96]	; (20391fc <boot_firmware+0x64>)
 203919c:	b082      	sub	sp, #8
 203919e:	f002 fdaf 	bl	203bd00 <__boot_msg0_veneer>
 20391a2:	f44f 43e0 	mov.w	r3, #28672	; 0x7000
 20391a6:	203c      	movs	r0, #60	; 0x3c
 20391a8:	9301      	str	r3, [sp, #4]
 20391aa:	f002 fdbd 	bl	203bd28 <__boot_malloc_veneer>
 20391ae:	4604      	mov	r4, r0
 20391b0:	b128      	cbz	r0, 20391be <boot_firmware+0x26>
 20391b2:	4601      	mov	r1, r0
 20391b4:	223c      	movs	r2, #60	; 0x3c
 20391b6:	2004      	movs	r0, #4
 20391b8:	f000 fd98 	bl	2039cec <uapi_factory_nv_read>
 20391bc:	b180      	cbz	r0, 20391e0 <boot_firmware+0x48>
 20391be:	4620      	mov	r0, r4
 20391c0:	f002 fdba 	bl	203bd38 <__boot_free_veneer>
 20391c4:	f04f 7200 	mov.w	r2, #33554432	; 0x2000000
 20391c8:	f44f 31c8 	mov.w	r1, #102400	; 0x19000
 20391cc:	9801      	ldr	r0, [sp, #4]
 20391ce:	f000 f8f1 	bl	20393b4 <uapi_flash_read>
 20391d2:	b970      	cbnz	r0, 20391f2 <boot_firmware+0x5a>
 20391d4:	f04f 7000 	mov.w	r0, #33554432	; 0x2000000
 20391d8:	f7ff ffdc 	bl	2039194 <boot_kernel>
 20391dc:	b002      	add	sp, #8
 20391de:	bd10      	pop	{r4, pc}
 20391e0:	8a20      	ldrh	r0, [r4, #16]
 20391e2:	a901      	add	r1, sp, #4
 20391e4:	f3c0 000b 	ubfx	r0, r0, #0, #12
 20391e8:	f7ff ffce 	bl	2039188 <uint_2_multiply.constprop.0>
 20391ec:	2800      	cmp	r0, #0
 20391ee:	d1e6      	bne.n	20391be <boot_firmware+0x26>
 20391f0:	e7f4      	b.n	20391dc <boot_firmware+0x44>
 20391f2:	4803      	ldr	r0, [pc, #12]	; (2039200 <boot_firmware+0x68>)
 20391f4:	f002 fd84 	bl	203bd00 <__boot_msg0_veneer>
 20391f8:	e7ec      	b.n	20391d4 <boot_firmware+0x3c>
 20391fa:	bf00      	nop
 20391fc:	0203b574 	andeq	fp, r3, #116, 10	; 0x1d000000
 2039200:	0203b584 	andeq	fp, r3, #132, 10	; 0x21000000

02039204 <start_fastboot>:
 2039204:	e92d 43f0 	stmdb	sp!, {r4, r5, r6, r7, r8, r9, lr}
 2039208:	b083      	sub	sp, #12
 203920a:	f7ff ffab 	bl	2039164 <start_fast_boot_init>
 203920e:	f44f 4080 	mov.w	r0, #16384	; 0x4000
 2039212:	f8df 80dc 	ldr.w	r8, [pc, #220]	; 20392f0 <start_fastboot+0xec>
 2039216:	4b37      	ldr	r3, [pc, #220]	; (20392f4 <start_fastboot+0xf0>)
 2039218:	f8c8 3044 	str.w	r3, [r8, #68]	; 0x44
 203921c:	f8d8 704c 	ldr.w	r7, [r8, #76]	; 0x4c
 2039220:	f007 477f 	and.w	r7, r7, #4278190080	; 0xff000000
 2039224:	ea47 0300 	orr.w	r3, r7, r0
 2039228:	f8c8 304c 	str.w	r3, [r8, #76]	; 0x4c
 203922c:	f000 fd5a 	bl	2039ce4 <uapi_factory_nv_init>
 2039230:	4604      	mov	r4, r0
 2039232:	b310      	cbz	r0, 203927a <start_fastboot+0x76>
 2039234:	2500      	movs	r5, #0
 2039236:	46a9      	mov	r9, r5
 2039238:	2128      	movs	r1, #40	; 0x28
 203923a:	2001      	movs	r0, #1
 203923c:	f002 fd70 	bl	203bd20 <__uart_auth_process_veneer>
 2039240:	b9a0      	cbnz	r0, 203926c <start_fastboot+0x68>
 2039242:	462a      	mov	r2, r5
 2039244:	4649      	mov	r1, r9
 2039246:	4620      	mov	r0, r4
 2039248:	f7ff fee0 	bl	203900c <start_fast_boot_print_msg>
 203924c:	a801      	add	r0, sp, #4
 203924e:	f002 fdcb 	bl	203bde8 <__uapi_time_counter_getms_veneer>
 2039252:	9901      	ldr	r1, [sp, #4]
 2039254:	4828      	ldr	r0, [pc, #160]	; (20392f8 <start_fastboot+0xf4>)
 2039256:	f002 fdcb 	bl	203bdf0 <__boot_msg1_veneer>
 203925a:	f002 fc9d 	bl	203bb98 <uapi_get_hw_chip_type>
 203925e:	2801      	cmp	r0, #1
 2039260:	d021      	beq.n	20392a6 <start_fastboot+0xa2>
 2039262:	f001 f951 	bl	203a508 <boot_start_main>
 2039266:	f7ff ff97 	bl	2039198 <boot_firmware>
 203926a:	e7fe      	b.n	203926a <start_fastboot+0x66>
 203926c:	f002 fd54 	bl	203bd18 <__uapi_watchdog_disable_veneer>
 2039270:	b003      	add	sp, #12
 2039272:	e8bd 43f0 	ldmia.w	sp!, {r4, r5, r6, r7, r8, r9, lr}
 2039276:	f002 bd77 	b.w	203bd68 <__cli_loop_veneer>
 203927a:	203c      	movs	r0, #60	; 0x3c
 203927c:	f002 fd54 	bl	203bd28 <__boot_malloc_veneer>
 2039280:	4606      	mov	r6, r0
 2039282:	b168      	cbz	r0, 20392a0 <start_fastboot+0x9c>
 2039284:	f000 ff64 	bl	203a150 <uapi_flash_partition_init>
 2039288:	223c      	movs	r2, #60	; 0x3c
 203928a:	4681      	mov	r9, r0
 203928c:	4631      	mov	r1, r6
 203928e:	2004      	movs	r0, #4
 2039290:	f000 fd2c 	bl	2039cec <uapi_factory_nv_read>
 2039294:	4605      	mov	r5, r0
 2039296:	b170      	cbz	r0, 20392b6 <start_fastboot+0xb2>
 2039298:	4630      	mov	r0, r6
 203929a:	f002 fd4d 	bl	203bd38 <__boot_free_veneer>
 203929e:	e7cb      	b.n	2039238 <start_fastboot+0x34>
 20392a0:	4605      	mov	r5, r0
 20392a2:	4681      	mov	r9, r0
 20392a4:	e7f8      	b.n	2039298 <start_fastboot+0x94>
 20392a6:	4815      	ldr	r0, [pc, #84]	; (20392fc <start_fastboot+0xf8>)
 20392a8:	f002 fd2a 	bl	203bd00 <__boot_msg0_veneer>
 20392ac:	f001 f92c 	bl	203a508 <boot_start_main>
 20392b0:	f7ff ff72 	bl	2039198 <boot_firmware>
 20392b4:	e7d9      	b.n	203926a <start_fastboot+0x66>
 20392b6:	89b0      	ldrh	r0, [r6, #12]
 20392b8:	4629      	mov	r1, r5
 20392ba:	f3c0 000b 	ubfx	r0, r0, #0, #12
 20392be:	f7ff ff63 	bl	2039188 <uint_2_multiply.constprop.0>
 20392c2:	2800      	cmp	r0, #0
 20392c4:	d0e8      	beq.n	2039298 <start_fastboot+0x94>
 20392c6:	8930      	ldrh	r0, [r6, #8]
 20392c8:	f3c0 000b 	ubfx	r0, r0, #0, #12
 20392cc:	f7ff ff5c 	bl	2039188 <uint_2_multiply.constprop.0>
 20392d0:	2800      	cmp	r0, #0
 20392d2:	d0e1      	beq.n	2039298 <start_fastboot+0x94>
 20392d4:	8933      	ldrh	r3, [r6, #8]
 20392d6:	89b2      	ldrh	r2, [r6, #12]
 20392d8:	f3c3 030b 	ubfx	r3, r3, #0, #12
 20392dc:	ea47 3303 	orr.w	r3, r7, r3, lsl #12
 20392e0:	f8c8 304c 	str.w	r3, [r8, #76]	; 0x4c
 20392e4:	f3c2 020b 	ubfx	r2, r2, #0, #12
 20392e8:	4b05      	ldr	r3, [pc, #20]	; (2039300 <start_fastboot+0xfc>)
 20392ea:	0312      	lsls	r2, r2, #12
 20392ec:	605a      	str	r2, [r3, #4]
 20392ee:	e7d3      	b.n	2039298 <start_fastboot+0x94>
 20392f0:	40030000 	andmi	r0, r3, r0
 20392f4:	8000000c 	andhi	r0, r0, ip
 20392f8:	0203b5ac 	andeq	fp, r3, #172, 10	; 0x2b000000
 20392fc:	0203b5c0 	andeq	fp, r3, #192, 10	; 0x30000000
 2039300:	0203f228 	andeq	pc, r3, #40, 4	; 0x80000002

02039304 <uapi_flash_protect_cancel>:
 2039304:	4b03      	ldr	r3, [pc, #12]	; (2039314 <uapi_flash_protect_cancel+0x10>)
 2039306:	7818      	ldrb	r0, [r3, #0]
 2039308:	b900      	cbnz	r0, 203930c <uapi_flash_protect_cancel+0x8>
 203930a:	4770      	bx	lr
 203930c:	2100      	movs	r1, #0
 203930e:	4608      	mov	r0, r1
 2039310:	f002 bc84 	b.w	203bc1c <spi_flash_set_protect>
 2039314:	0203c35c 	andeq	ip, r3, #92, 6	; 0x70000001

02039318 <uapi_flash_protect_enable>:
 2039318:	4b07      	ldr	r3, [pc, #28]	; (2039338 <uapi_flash_protect_enable+0x20>)
 203931a:	4a08      	ldr	r2, [pc, #32]	; (203933c <uapi_flash_protect_enable+0x24>)
 203931c:	7018      	strb	r0, [r3, #0]
 203931e:	6cd3      	ldr	r3, [r2, #76]	; 0x4c
 2039320:	b120      	cbz	r0, 203932c <uapi_flash_protect_enable+0x14>
 2039322:	f043 4300 	orr.w	r3, r3, #2147483648	; 0x80000000
 2039326:	2000      	movs	r0, #0
 2039328:	64d3      	str	r3, [r2, #76]	; 0x4c
 203932a:	4770      	bx	lr
 203932c:	f023 4300 	bic.w	r3, r3, #2147483648	; 0x80000000
 2039330:	2000      	movs	r0, #0
 2039332:	64d3      	str	r3, [r2, #76]	; 0x4c
 2039334:	4770      	bx	lr
 2039336:	bf00      	nop
 2039338:	0203c35c 	andeq	ip, r3, #92, 6	; 0x70000001
 203933c:	40030000 	andmi	r0, r3, r0

02039340 <uapi_flash_erase>:
 2039340:	b538      	push	{r3, r4, r5, lr}
 2039342:	4604      	mov	r4, r0
 2039344:	460d      	mov	r5, r1
 2039346:	2302      	movs	r3, #2
 2039348:	4621      	mov	r1, r4
 203934a:	462a      	mov	r2, r5
 203934c:	4807      	ldr	r0, [pc, #28]	; (203936c <uapi_flash_erase+0x2c>)
 203934e:	f002 fd23 	bl	203bd98 <__sfc_check_para_veneer>
 2039352:	b100      	cbz	r0, 2039356 <uapi_flash_erase+0x16>
 2039354:	bd38      	pop	{r3, r4, r5, pc}
 2039356:	f7ff ffd5 	bl	2039304 <uapi_flash_protect_cancel>
 203935a:	2800      	cmp	r0, #0
 203935c:	d1fa      	bne.n	2039354 <uapi_flash_erase+0x14>
 203935e:	462a      	mov	r2, r5
 2039360:	4621      	mov	r1, r4
 2039362:	e8bd 4038 	ldmia.w	sp!, {r3, r4, r5, lr}
 2039366:	4801      	ldr	r0, [pc, #4]	; (203936c <uapi_flash_erase+0x2c>)
 2039368:	f002 bd02 	b.w	203bd70 <__flash_erase_prv_veneer>
 203936c:	0203c308 	andeq	ip, r3, #8, 6	; 0x20000000

02039370 <uapi_flash_write>:
 2039370:	b1da      	cbz	r2, 20393aa <uapi_flash_write+0x3a>
 2039372:	b5f0      	push	{r4, r5, r6, r7, lr}
 2039374:	4605      	mov	r5, r0
 2039376:	460e      	mov	r6, r1
 2039378:	4614      	mov	r4, r2
 203937a:	461f      	mov	r7, r3
 203937c:	460a      	mov	r2, r1
 203937e:	b083      	sub	sp, #12
 2039380:	4601      	mov	r1, r0
 2039382:	2301      	movs	r3, #1
 2039384:	480a      	ldr	r0, [pc, #40]	; (20393b0 <uapi_flash_write+0x40>)
 2039386:	f002 fd07 	bl	203bd98 <__sfc_check_para_veneer>
 203938a:	b108      	cbz	r0, 2039390 <uapi_flash_write+0x20>
 203938c:	b003      	add	sp, #12
 203938e:	bdf0      	pop	{r4, r5, r6, r7, pc}
 2039390:	f7ff ffb8 	bl	2039304 <uapi_flash_protect_cancel>
 2039394:	2800      	cmp	r0, #0
 2039396:	d1f9      	bne.n	203938c <uapi_flash_write+0x1c>
 2039398:	4633      	mov	r3, r6
 203939a:	4622      	mov	r2, r4
 203939c:	4629      	mov	r1, r5
 203939e:	9700      	str	r7, [sp, #0]
 20393a0:	4803      	ldr	r0, [pc, #12]	; (20393b0 <uapi_flash_write+0x40>)
 20393a2:	f002 fcd9 	bl	203bd58 <__flash_write_prv_veneer>
 20393a6:	b003      	add	sp, #12
 20393a8:	bdf0      	pop	{r4, r5, r6, r7, pc}
 20393aa:	f640 607a 	movw	r0, #3706	; 0xe7a
 20393ae:	4770      	bx	lr
 20393b0:	0203c308 	andeq	ip, r3, #8, 6	; 0x20000000

020393b4 <uapi_flash_read>:
 20393b4:	b19a      	cbz	r2, 20393de <uapi_flash_read+0x2a>
 20393b6:	b570      	push	{r4, r5, r6, lr}
 20393b8:	2300      	movs	r3, #0
 20393ba:	4605      	mov	r5, r0
 20393bc:	460e      	mov	r6, r1
 20393be:	4614      	mov	r4, r2
 20393c0:	460a      	mov	r2, r1
 20393c2:	4601      	mov	r1, r0
 20393c4:	4807      	ldr	r0, [pc, #28]	; (20393e4 <uapi_flash_read+0x30>)
 20393c6:	f002 fce7 	bl	203bd98 <__sfc_check_para_veneer>
 20393ca:	b100      	cbz	r0, 20393ce <uapi_flash_read+0x1a>
 20393cc:	bd70      	pop	{r4, r5, r6, pc}
 20393ce:	4633      	mov	r3, r6
 20393d0:	4622      	mov	r2, r4
 20393d2:	4629      	mov	r1, r5
 20393d4:	e8bd 4070 	ldmia.w	sp!, {r4, r5, r6, lr}
 20393d8:	4802      	ldr	r0, [pc, #8]	; (20393e4 <uapi_flash_read+0x30>)
 20393da:	f002 bce9 	b.w	203bdb0 <__flash_read_prv_veneer>
 20393de:	f640 607a 	movw	r0, #3706	; 0xe7a
 20393e2:	4770      	bx	lr
 20393e4:	0203c308 	andeq	ip, r3, #8, 6	; 0x20000000

020393e8 <uapi_flash_init>:
 20393e8:	2300      	movs	r3, #0
 20393ea:	b530      	push	{r4, r5, lr}
 20393ec:	4c13      	ldr	r4, [pc, #76]	; (203943c <uapi_flash_init+0x54>)
 20393ee:	b083      	sub	sp, #12
 20393f0:	6822      	ldr	r2, [r4, #0]
 20393f2:	e9cd 3300 	strd	r3, r3, [sp]
 20393f6:	2a01      	cmp	r2, #1
 20393f8:	d018      	beq.n	203942c <uapi_flash_init+0x44>
 20393fa:	f44f 6580 	mov.w	r5, #1024	; 0x400
 20393fe:	4910      	ldr	r1, [pc, #64]	; (2039440 <uapi_flash_init+0x58>)
 2039400:	2304      	movs	r3, #4
 2039402:	63a1      	str	r1, [r4, #56]	; 0x38
 2039404:	4620      	mov	r0, r4
 2039406:	4669      	mov	r1, sp
 2039408:	4a0e      	ldr	r2, [pc, #56]	; (2039444 <uapi_flash_init+0x5c>)
 203940a:	6365      	str	r5, [r4, #52]	; 0x34
 203940c:	f002 fcd4 	bl	203bdb8 <__spi_flash_basic_info_probe_veneer>
 2039410:	4605      	mov	r5, r0
 2039412:	b110      	cbz	r0, 203941a <uapi_flash_init+0x32>
 2039414:	4628      	mov	r0, r5
 2039416:	b003      	add	sp, #12
 2039418:	bd30      	pop	{r4, r5, pc}
 203941a:	f002 fbbd 	bl	203bb98 <uapi_get_hw_chip_type>
 203941e:	2801      	cmp	r0, #1
 2039420:	d009      	beq.n	2039436 <uapi_flash_init+0x4e>
 2039422:	2301      	movs	r3, #1
 2039424:	4628      	mov	r0, r5
 2039426:	6023      	str	r3, [r4, #0]
 2039428:	b003      	add	sp, #12
 203942a:	bd30      	pop	{r4, r5, pc}
 203942c:	f640 6589 	movw	r5, #3721	; 0xe89
 2039430:	4628      	mov	r0, r5
 2039432:	b003      	add	sp, #12
 2039434:	bd30      	pop	{r4, r5, pc}
 2039436:	f7ff ff6f 	bl	2039318 <uapi_flash_protect_enable>
 203943a:	e7f2      	b.n	2039422 <uapi_flash_init+0x3a>
 203943c:	0203c308 	andeq	ip, r3, #8, 6	; 0x20000000
 2039440:	0203bf08 	andeq	fp, r3, #8, 30
 2039444:	0203b5fc 	andeq	fp, r3, #252, 10	; 0x3f000000

02039448 <crc32_no_comp>:
 2039448:	078b      	lsls	r3, r1, #30
 203944a:	b410      	push	{r4}
 203944c:	d00e      	beq.n	203946c <crc32_no_comp+0x24>
 203944e:	b15a      	cbz	r2, 2039468 <crc32_no_comp+0x20>
 2039450:	4b23      	ldr	r3, [pc, #140]	; (20394e0 <crc32_no_comp+0x98>)
 2039452:	440a      	add	r2, r1
 2039454:	f811 4b01 	ldrb.w	r4, [r1], #1
 2039458:	4044      	eors	r4, r0
 203945a:	b2e4      	uxtb	r4, r4
 203945c:	f853 4024 	ldr.w	r4, [r3, r4, lsl #2]
 2039460:	4291      	cmp	r1, r2
 2039462:	ea84 2010 	eor.w	r0, r4, r0, lsr #8
 2039466:	d1f5      	bne.n	2039454 <crc32_no_comp+0xc>
 2039468:	bc10      	pop	{r4}
 203946a:	4770      	bx	lr
 203946c:	f002 0403 	and.w	r4, r2, #3
 2039470:	0892      	lsrs	r2, r2, #2
 2039472:	f1a1 0c04 	sub.w	ip, r1, #4
 2039476:	d031      	beq.n	20394dc <crc32_no_comp+0x94>
 2039478:	f102 4280 	add.w	r2, r2, #1073741824	; 0x40000000
 203947c:	3a01      	subs	r2, #1
 203947e:	4b18      	ldr	r3, [pc, #96]	; (20394e0 <crc32_no_comp+0x98>)
 2039480:	eb01 0182 	add.w	r1, r1, r2, lsl #2
 2039484:	f85c 2f04 	ldr.w	r2, [ip, #4]!
 2039488:	4050      	eors	r0, r2
 203948a:	b2c2      	uxtb	r2, r0
 203948c:	f853 2022 	ldr.w	r2, [r3, r2, lsl #2]
 2039490:	458c      	cmp	ip, r1
 2039492:	ea82 2210 	eor.w	r2, r2, r0, lsr #8
 2039496:	b2d0      	uxtb	r0, r2
 2039498:	f853 0020 	ldr.w	r0, [r3, r0, lsl #2]
 203949c:	ea80 2212 	eor.w	r2, r0, r2, lsr #8
 20394a0:	b2d0      	uxtb	r0, r2
 20394a2:	f853 0020 	ldr.w	r0, [r3, r0, lsl #2]
 20394a6:	ea80 2012 	eor.w	r0, r0, r2, lsr #8
 20394aa:	b2c2      	uxtb	r2, r0
 20394ac:	f853 2022 	ldr.w	r2, [r3, r2, lsl #2]
 20394b0:	ea82 2010 	eor.w	r0, r2, r0, lsr #8
 20394b4:	d1e6      	bne.n	2039484 <crc32_no_comp+0x3c>
 20394b6:	2c00      	cmp	r4, #0
 20394b8:	d0d6      	beq.n	2039468 <crc32_no_comp+0x20>
 20394ba:	3403      	adds	r4, #3
 20394bc:	4b08      	ldr	r3, [pc, #32]	; (20394e0 <crc32_no_comp+0x98>)
 20394be:	f101 0c03 	add.w	ip, r1, #3
 20394c2:	4421      	add	r1, r4
 20394c4:	f81c 2f01 	ldrb.w	r2, [ip, #1]!
 20394c8:	4042      	eors	r2, r0
 20394ca:	b2d2      	uxtb	r2, r2
 20394cc:	f853 2022 	ldr.w	r2, [r3, r2, lsl #2]
 20394d0:	458c      	cmp	ip, r1
 20394d2:	ea82 2010 	eor.w	r0, r2, r0, lsr #8
 20394d6:	d1f5      	bne.n	20394c4 <crc32_no_comp+0x7c>
 20394d8:	bc10      	pop	{r4}
 20394da:	4770      	bx	lr
 20394dc:	4661      	mov	r1, ip
 20394de:	e7ea      	b.n	20394b6 <crc32_no_comp+0x6e>
 20394e0:	0203b64c 	andeq	fp, r3, #76, 12	; 0x4c00000

020394e4 <uapi_crc32>:
 20394e4:	b508      	push	{r3, lr}
 20394e6:	43c0      	mvns	r0, r0
 20394e8:	f7ff ffae 	bl	2039448 <crc32_no_comp>
 20394ec:	43c0      	mvns	r0, r0
 20394ee:	bd08      	pop	{r3, pc}

020394f0 <lzma_free>:
 20394f0:	4608      	mov	r0, r1
 20394f2:	b109      	cbz	r1, 20394f8 <lzma_free+0x8>
 20394f4:	f002 bc20 	b.w	203bd38 <__boot_free_veneer>
 20394f8:	4770      	bx	lr
 20394fa:	bf00      	nop

020394fc <lzma_alloc>:
 20394fc:	b538      	push	{r3, r4, r5, lr}
 20394fe:	4608      	mov	r0, r1
 2039500:	460d      	mov	r5, r1
 2039502:	f002 fc11 	bl	203bd28 <__boot_malloc_veneer>
 2039506:	4604      	mov	r4, r0
 2039508:	b108      	cbz	r0, 203950e <lzma_alloc+0x12>
 203950a:	4620      	mov	r0, r4
 203950c:	bd38      	pop	{r3, r4, r5, pc}
 203950e:	4629      	mov	r1, r5
 2039510:	4802      	ldr	r0, [pc, #8]	; (203951c <lzma_alloc+0x20>)
 2039512:	f002 fc6d 	bl	203bdf0 <__boot_msg1_veneer>
 2039516:	4620      	mov	r0, r4
 2039518:	bd38      	pop	{r3, r4, r5, pc}
 203951a:	bf00      	nop
 203951c:	0203ba4c 	andeq	fp, r3, #76, 20	; 0x4c000

02039520 <uapi_lzma_get_uncompress_len>:
 2039520:	b1a8      	cbz	r0, 203954e <uapi_lzma_get_uncompress_len+0x2e>
 2039522:	b1a2      	cbz	r2, 203954e <uapi_lzma_get_uncompress_len+0x2e>
 2039524:	b19b      	cbz	r3, 203954e <uapi_lzma_get_uncompress_len+0x2e>
 2039526:	290d      	cmp	r1, #13
 2039528:	d811      	bhi.n	203954e <uapi_lzma_get_uncompress_len+0x2e>
 203952a:	4684      	mov	ip, r0
 203952c:	f8d0 0009 	ldr.w	r0, [r0, #9]
 2039530:	b968      	cbnz	r0, 203954e <uapi_lzma_get_uncompress_len+0x2e>
 2039532:	b410      	push	{r4}
 2039534:	f8dc 1001 	ldr.w	r1, [ip, #1]
 2039538:	f8dc 4005 	ldr.w	r4, [ip, #5]
 203953c:	f5b1 5f80 	cmp.w	r1, #4096	; 0x1000
 2039540:	bf38      	it	cc
 2039542:	f44f 5180 	movcc.w	r1, #4096	; 0x1000
 2039546:	6019      	str	r1, [r3, #0]
 2039548:	6014      	str	r4, [r2, #0]
 203954a:	bc10      	pop	{r4}
 203954c:	4770      	bx	lr
 203954e:	f04f 30ff 	mov.w	r0, #4294967295	; 0xffffffff
 2039552:	4770      	bx	lr

02039554 <uapi_lzma_decompress>:
 2039554:	b570      	push	{r4, r5, r6, lr}
 2039556:	b08e      	sub	sp, #56	; 0x38
 2039558:	930b      	str	r3, [sp, #44]	; 0x2c
 203955a:	2300      	movs	r3, #0
 203955c:	260d      	movs	r6, #13
 203955e:	4614      	mov	r4, r2
 2039560:	4605      	mov	r5, r0
 2039562:	e9cd 3305 	strd	r3, r3, [sp, #20]
 2039566:	9307      	str	r3, [sp, #28]
 2039568:	930c      	str	r3, [sp, #48]	; 0x30
 203956a:	4b0f      	ldr	r3, [pc, #60]	; (20395a8 <uapi_lzma_decompress+0x54>)
 203956c:	9a12      	ldr	r2, [sp, #72]	; 0x48
 203956e:	9308      	str	r3, [sp, #32]
 2039570:	4b0e      	ldr	r3, [pc, #56]	; (20395ac <uapi_lzma_decompress+0x58>)
 2039572:	920d      	str	r2, [sp, #52]	; 0x34
 2039574:	9309      	str	r3, [sp, #36]	; 0x24
 2039576:	aa06      	add	r2, sp, #24
 2039578:	ab07      	add	r3, sp, #28
 203957a:	960a      	str	r6, [sp, #40]	; 0x28
 203957c:	f7ff ffd0 	bl	2039520 <uapi_lzma_get_uncompress_len>
 2039580:	9906      	ldr	r1, [sp, #24]
 2039582:	aa0c      	add	r2, sp, #48	; 0x30
 2039584:	ab0a      	add	r3, sp, #40	; 0x28
 2039586:	3c0d      	subs	r4, #13
 2039588:	e9cd 3200 	strd	r3, r2, [sp]
 203958c:	e9cd 4102 	strd	r4, r1, [sp, #8]
 2039590:	4628      	mov	r0, r5
 2039592:	2105      	movs	r1, #5
 2039594:	ab08      	add	r3, sp, #32
 2039596:	aa05      	add	r2, sp, #20
 2039598:	f002 fc22 	bl	203bde0 <__LzmaDecode2_veneer>
 203959c:	3800      	subs	r0, #0
 203959e:	bf18      	it	ne
 20395a0:	2001      	movne	r0, #1
 20395a2:	4240      	negs	r0, r0
 20395a4:	b00e      	add	sp, #56	; 0x38
 20395a6:	bd70      	pop	{r4, r5, r6, pc}
 20395a8:	020394fd 	andeq	r9, r3, #-50331648	; 0xfd000000
 20395ac:	020394f1 	andeq	r9, r3, #-251658240	; 0xf1000000

020395b0 <uapi_lzma_mem_detect>:
 20395b0:	e92d 41f0 	stmdb	sp!, {r4, r5, r6, r7, r8, lr}
 20395b4:	2400      	movs	r4, #0
 20395b6:	b08c      	sub	sp, #48	; 0x30
 20395b8:	ad07      	add	r5, sp, #28
 20395ba:	466a      	mov	r2, sp
 20395bc:	ab01      	add	r3, sp, #4
 20395be:	4607      	mov	r7, r0
 20395c0:	e9cd 4401 	strd	r4, r4, [sp, #4]
 20395c4:	e9cd 4403 	strd	r4, r4, [sp, #12]
 20395c8:	e9cd 4405 	strd	r4, r4, [sp, #20]
 20395cc:	e9c5 4401 	strd	r4, r4, [r5, #4]
 20395d0:	e9c5 4403 	strd	r4, r4, [r5, #12]
 20395d4:	9400      	str	r4, [sp, #0]
 20395d6:	9407      	str	r4, [sp, #28]
 20395d8:	f7ff ffa2 	bl	2039520 <uapi_lzma_get_uncompress_len>
 20395dc:	4606      	mov	r6, r0
 20395de:	2800      	cmp	r0, #0
 20395e0:	d143      	bne.n	203966a <uapi_lzma_mem_detect+0xba>
 20395e2:	7838      	ldrb	r0, [r7, #0]
 20395e4:	28e0      	cmp	r0, #224	; 0xe0
 20395e6:	d844      	bhi.n	2039672 <uapi_lzma_mem_detect+0xc2>
 20395e8:	4b25      	ldr	r3, [pc, #148]	; (2039680 <uapi_lzma_mem_detect+0xd0>)
 20395ea:	f44f 5180 	mov.w	r1, #4096	; 0x1000
 20395ee:	fba3 2300 	umull	r2, r3, r3, r0
 20395f2:	085a      	lsrs	r2, r3, #1
 20395f4:	4613      	mov	r3, r2
 20395f6:	eb02 02c2 	add.w	r2, r2, r2, lsl #3
 20395fa:	1a82      	subs	r2, r0, r2
 20395fc:	f44f 7040 	mov.w	r0, #768	; 0x300
 2039600:	f44f 6480 	mov.w	r4, #1024	; 0x400
 2039604:	e9cd 1103 	strd	r1, r1, [sp, #12]
 2039608:	491e      	ldr	r1, [pc, #120]	; (2039684 <uapi_lzma_mem_detect+0xd4>)
 203960a:	b2d2      	uxtb	r2, r2
 203960c:	fba1 1c03 	umull	r1, ip, r1, r3
 2039610:	9901      	ldr	r1, [sp, #4]
 2039612:	9406      	str	r4, [sp, #24]
 2039614:	9105      	str	r1, [sp, #20]
 2039616:	f00c 011c 	and.w	r1, ip, #28
 203961a:	eb01 0c9c 	add.w	ip, r1, ip, lsr #2
 203961e:	eba3 030c 	sub.w	r3, r3, ip
 2039622:	b2db      	uxtb	r3, r3
 2039624:	4413      	add	r3, r2
 2039626:	4098      	lsls	r0, r3
 2039628:	f200 7336 	addw	r3, r0, #1846	; 0x736
 203962c:	0058      	lsls	r0, r3, #1
 203962e:	462f      	mov	r7, r5
 2039630:	f002 fb7a 	bl	203bd28 <__boot_malloc_veneer>
 2039634:	ac0c      	add	r4, sp, #48	; 0x30
 2039636:	f10d 080c 	add.w	r8, sp, #12
 203963a:	f847 0b04 	str.w	r0, [r7], #4
 203963e:	b148      	cbz	r0, 2039654 <uapi_lzma_mem_detect+0xa4>
 2039640:	42a7      	cmp	r7, r4
 2039642:	d009      	beq.n	2039658 <uapi_lzma_mem_detect+0xa8>
 2039644:	f858 0b04 	ldr.w	r0, [r8], #4
 2039648:	f002 fb6e 	bl	203bd28 <__boot_malloc_veneer>
 203964c:	f847 0b04 	str.w	r0, [r7], #4
 2039650:	2800      	cmp	r0, #0
 2039652:	d1f5      	bne.n	2039640 <uapi_lzma_mem_detect+0x90>
 2039654:	f04f 36ff 	mov.w	r6, #4294967295	; 0xffffffff
 2039658:	ac0b      	add	r4, sp, #44	; 0x2c
 203965a:	6820      	ldr	r0, [r4, #0]
 203965c:	4627      	mov	r7, r4
 203965e:	3c04      	subs	r4, #4
 2039660:	b108      	cbz	r0, 2039666 <uapi_lzma_mem_detect+0xb6>
 2039662:	f002 fb69 	bl	203bd38 <__boot_free_veneer>
 2039666:	42af      	cmp	r7, r5
 2039668:	d1f7      	bne.n	203965a <uapi_lzma_mem_detect+0xaa>
 203966a:	4630      	mov	r0, r6
 203966c:	b00c      	add	sp, #48	; 0x30
 203966e:	e8bd 81f0 	ldmia.w	sp!, {r4, r5, r6, r7, r8, pc}
 2039672:	f04f 36ff 	mov.w	r6, #4294967295	; 0xffffffff
 2039676:	4630      	mov	r0, r6
 2039678:	b00c      	add	sp, #48	; 0x30
 203967a:	e8bd 81f0 	ldmia.w	sp!, {r4, r5, r6, r7, r8, pc}
 203967e:	bf00      	nop
 2039680:	38e38e39 	stmiacc	r3!, {r0, r3, r4, r5, r9, sl, fp, pc}^
 2039684:	cccccccd 	stclgt	12, cr12, [ip], {205}	; 0xcd

02039688 <nv_init_data_check_all_success>:
 2039688:	b430      	push	{r4, r5}
 203968a:	68c4      	ldr	r4, [r0, #12]
 203968c:	68cd      	ldr	r5, [r1, #12]
 203968e:	42ac      	cmp	r4, r5
 2039690:	d90a      	bls.n	20396a8 <nv_init_data_check_all_success+0x20>
 2039692:	f502 5180 	add.w	r1, r2, #4096	; 0x1000
 2039696:	e9c3 2100 	strd	r2, r1, [r3]
 203969a:	8942      	ldrh	r2, [r0, #10]
 203969c:	301c      	adds	r0, #28
 203969e:	609c      	str	r4, [r3, #8]
 20396a0:	825a      	strh	r2, [r3, #18]
 20396a2:	6158      	str	r0, [r3, #20]
 20396a4:	bc30      	pop	{r4, r5}
 20396a6:	4770      	bx	lr
 20396a8:	4608      	mov	r0, r1
 20396aa:	f502 5180 	add.w	r1, r2, #4096	; 0x1000
 20396ae:	462c      	mov	r4, r5
 20396b0:	e9c3 1200 	strd	r1, r2, [r3]
 20396b4:	e7f1      	b.n	203969a <nv_init_data_check_all_success+0x12>
 20396b6:	bf00      	nop

020396b8 <nv_init_data_prepare>:
 20396b8:	b570      	push	{r4, r5, r6, lr}
 20396ba:	4606      	mov	r6, r0
 20396bc:	f44f 5080 	mov.w	r0, #4096	; 0x1000
 20396c0:	460d      	mov	r5, r1
 20396c2:	f002 fb31 	bl	203bd28 <__boot_malloc_veneer>
 20396c6:	b158      	cbz	r0, 20396e0 <nv_init_data_prepare+0x28>
 20396c8:	4602      	mov	r2, r0
 20396ca:	4604      	mov	r4, r0
 20396cc:	f44f 5180 	mov.w	r1, #4096	; 0x1000
 20396d0:	4628      	mov	r0, r5
 20396d2:	f7ff fe6f 	bl	20393b4 <uapi_flash_read>
 20396d6:	4605      	mov	r5, r0
 20396d8:	b930      	cbnz	r0, 20396e8 <nv_init_data_prepare+0x30>
 20396da:	4628      	mov	r0, r5
 20396dc:	6034      	str	r4, [r6, #0]
 20396de:	bd70      	pop	{r4, r5, r6, pc}
 20396e0:	f241 35ef 	movw	r5, #5103	; 0x13ef
 20396e4:	4628      	mov	r0, r5
 20396e6:	bd70      	pop	{r4, r5, r6, pc}
 20396e8:	4620      	mov	r0, r4
 20396ea:	f002 fb25 	bl	203bd38 <__boot_free_veneer>
 20396ee:	4628      	mov	r0, r5
 20396f0:	bd70      	pop	{r4, r5, r6, pc}
 20396f2:	bf00      	nop

020396f4 <nv_check_file>:
 20396f4:	b538      	push	{r3, r4, r5, lr}
 20396f6:	4c11      	ldr	r4, [pc, #68]	; (203973c <nv_check_file+0x48>)
 20396f8:	4d11      	ldr	r5, [pc, #68]	; (2039740 <nv_check_file+0x4c>)
 20396fa:	2a01      	cmp	r2, #1
 20396fc:	bf18      	it	ne
 20396fe:	462c      	movne	r4, r5
 2039700:	6802      	ldr	r2, [r0, #0]
 2039702:	42a2      	cmp	r2, r4
 2039704:	d116      	bne.n	2039734 <nv_check_file+0x40>
 2039706:	8942      	ldrh	r2, [r0, #10]
 2039708:	4603      	mov	r3, r0
 203970a:	f5b2 7f80 	cmp.w	r2, #256	; 0x100
 203970e:	d80e      	bhi.n	203972e <nv_check_file+0x3a>
 2039710:	f1a1 0208 	sub.w	r2, r1, #8
 2039714:	2000      	movs	r0, #0
 2039716:	f103 0108 	add.w	r1, r3, #8
 203971a:	685c      	ldr	r4, [r3, #4]
 203971c:	f7ff fee2 	bl	20394e4 <uapi_crc32>
 2039720:	f241 33f1 	movw	r3, #5105	; 0x13f1
 2039724:	4284      	cmp	r4, r0
 2039726:	bf14      	ite	ne
 2039728:	4618      	movne	r0, r3
 203972a:	2000      	moveq	r0, #0
 203972c:	bd38      	pop	{r3, r4, r5, pc}
 203972e:	f241 30ee 	movw	r0, #5102	; 0x13ee
 2039732:	bd38      	pop	{r3, r4, r5, pc}
 2039734:	f241 30f2 	movw	r0, #5106	; 0x13f2
 2039738:	bd38      	pop	{r3, r4, r5, pc}
 203973a:	bf00      	nop
 203973c:	23564e46 	cmpcs	r6, #1120	; 0x460
 2039740:	24564e48 	ldrbcs	r4, [r6], #-3656	; 0xfffff1b8

02039744 <nv_repair_from_backup>:
 2039744:	b570      	push	{r4, r5, r6, lr}
 2039746:	4604      	mov	r4, r0
 2039748:	460d      	mov	r5, r1
 203974a:	4610      	mov	r0, r2
 203974c:	f44f 5180 	mov.w	r1, #4096	; 0x1000
 2039750:	4622      	mov	r2, r4
 2039752:	f7ff fe2f 	bl	20393b4 <uapi_flash_read>
 2039756:	b100      	cbz	r0, 203975a <nv_repair_from_backup+0x16>
 2039758:	bd70      	pop	{r4, r5, r6, pc}
 203975a:	f44f 5180 	mov.w	r1, #4096	; 0x1000
 203975e:	4628      	mov	r0, r5
 2039760:	f7ff fdee 	bl	2039340 <uapi_flash_erase>
 2039764:	2800      	cmp	r0, #0
 2039766:	d1f7      	bne.n	2039758 <nv_repair_from_backup+0x14>
 2039768:	4603      	mov	r3, r0
 203976a:	4622      	mov	r2, r4
 203976c:	4628      	mov	r0, r5
 203976e:	e8bd 4070 	ldmia.w	sp!, {r4, r5, r6, lr}
 2039772:	f44f 5180 	mov.w	r1, #4096	; 0x1000
 2039776:	f7ff bdfb 	b.w	2039370 <uapi_flash_write>
 203977a:	bf00      	nop

0203977c <nv_init_data_check_all_fail>:
 203977c:	b570      	push	{r4, r5, r6, lr}
 203977e:	2a01      	cmp	r2, #1
 2039780:	9e04      	ldr	r6, [sp, #16]
 2039782:	d012      	beq.n	20397aa <nv_init_data_check_all_fail+0x2e>
 2039784:	4605      	mov	r5, r0
 2039786:	460a      	mov	r2, r1
 2039788:	4601      	mov	r1, r0
 203978a:	4630      	mov	r0, r6
 203978c:	461c      	mov	r4, r3
 203978e:	f7ff ffd9 	bl	2039744 <nv_repair_from_backup>
 2039792:	b948      	cbnz	r0, 20397a8 <nv_init_data_check_all_fail+0x2c>
 2039794:	f505 5380 	add.w	r3, r5, #4096	; 0x1000
 2039798:	8972      	ldrh	r2, [r6, #10]
 203979a:	e9c4 5300 	strd	r5, r3, [r4]
 203979e:	68f3      	ldr	r3, [r6, #12]
 20397a0:	361c      	adds	r6, #28
 20397a2:	8262      	strh	r2, [r4, #18]
 20397a4:	60a3      	str	r3, [r4, #8]
 20397a6:	6166      	str	r6, [r4, #20]
 20397a8:	bd70      	pop	{r4, r5, r6, pc}
 20397aa:	f241 30f0 	movw	r0, #5104	; 0x13f0
 20397ae:	bd70      	pop	{r4, r5, r6, pc}

020397b0 <nv_write_update_data>:
 20397b0:	e92d 41f0 	stmdb	sp!, {r4, r5, r6, r7, r8, lr}
 20397b4:	460e      	mov	r6, r1
 20397b6:	4604      	mov	r4, r0
 20397b8:	f44f 5180 	mov.w	r1, #4096	; 0x1000
 20397bc:	6830      	ldr	r0, [r6, #0]
 20397be:	b082      	sub	sp, #8
 20397c0:	4615      	mov	r5, r2
 20397c2:	461f      	mov	r7, r3
 20397c4:	f894 8004 	ldrb.w	r8, [r4, #4]
 20397c8:	f7ff fdf4 	bl	20393b4 <uapi_flash_read>
 20397cc:	4684      	mov	ip, r0
 20397ce:	b118      	cbz	r0, 20397d8 <nv_write_update_data+0x28>
 20397d0:	4660      	mov	r0, ip
 20397d2:	b002      	add	sp, #8
 20397d4:	e8bd 81f0 	ldmia.w	sp!, {r4, r5, r6, r7, r8, pc}
 20397d8:	4642      	mov	r2, r8
 20397da:	6821      	ldr	r1, [r4, #0]
 20397dc:	f7ff fe82 	bl	20394e4 <uapi_crc32>
 20397e0:	9001      	str	r0, [sp, #4]
 20397e2:	f1b8 0f00 	cmp.w	r8, #0
 20397e6:	d12f      	bne.n	2039848 <nv_write_update_data+0x98>
 20397e8:	2304      	movs	r3, #4
 20397ea:	8878      	ldrh	r0, [r7, #2]
 20397ec:	eb0d 0203 	add.w	r2, sp, r3
 20397f0:	f5c0 5180 	rsb	r1, r0, #4096	; 0x1000
 20397f4:	4440      	add	r0, r8
 20397f6:	eba1 0108 	sub.w	r1, r1, r8
 20397fa:	4428      	add	r0, r5
 20397fc:	f002 fafc 	bl	203bdf8 <__memcpy_s_veneer>
 2039800:	4604      	mov	r4, r0
 2039802:	bb58      	cbnz	r0, 203985c <nv_write_update_data+0xac>
 2039804:	68eb      	ldr	r3, [r5, #12]
 2039806:	f640 72f8 	movw	r2, #4088	; 0xff8
 203980a:	3301      	adds	r3, #1
 203980c:	60eb      	str	r3, [r5, #12]
 203980e:	f105 0108 	add.w	r1, r5, #8
 2039812:	f7ff fe67 	bl	20394e4 <uapi_crc32>
 2039816:	4603      	mov	r3, r0
 2039818:	f44f 5180 	mov.w	r1, #4096	; 0x1000
 203981c:	6870      	ldr	r0, [r6, #4]
 203981e:	606b      	str	r3, [r5, #4]
 2039820:	f7ff fd8e 	bl	2039340 <uapi_flash_erase>
 2039824:	4684      	mov	ip, r0
 2039826:	4623      	mov	r3, r4
 2039828:	462a      	mov	r2, r5
 203982a:	f44f 5180 	mov.w	r1, #4096	; 0x1000
 203982e:	6870      	ldr	r0, [r6, #4]
 2039830:	4664      	mov	r4, ip
 2039832:	f7ff fd9d 	bl	2039370 <uapi_flash_write>
 2039836:	eb14 0c00 	adds.w	ip, r4, r0
 203983a:	d10f      	bne.n	203985c <nv_write_update_data+0xac>
 203983c:	4660      	mov	r0, ip
 203983e:	9b08      	ldr	r3, [sp, #32]
 2039840:	601d      	str	r5, [r3, #0]
 2039842:	b002      	add	sp, #8
 2039844:	e8bd 81f0 	ldmia.w	sp!, {r4, r5, r6, r7, r8, pc}
 2039848:	8878      	ldrh	r0, [r7, #2]
 203984a:	4643      	mov	r3, r8
 203984c:	f5c0 5180 	rsb	r1, r0, #4096	; 0x1000
 2039850:	6822      	ldr	r2, [r4, #0]
 2039852:	4428      	add	r0, r5
 2039854:	f002 fad0 	bl	203bdf8 <__memcpy_s_veneer>
 2039858:	2800      	cmp	r0, #0
 203985a:	d0c5      	beq.n	20397e8 <nv_write_update_data+0x38>
 203985c:	f04f 3cff 	mov.w	ip, #4294967295	; 0xffffffff
 2039860:	4660      	mov	r0, ip
 2039862:	b002      	add	sp, #8
 2039864:	e8bd 81f0 	ldmia.w	sp!, {r4, r5, r6, r7, r8, pc}

02039868 <nv_write_para_check.constprop.0>:
 2039868:	b180      	cbz	r0, 203988c <nv_write_para_check.constprop.0+0x24>
 203986a:	3901      	subs	r1, #1
 203986c:	b2c9      	uxtb	r1, r1
 203986e:	29fb      	cmp	r1, #251	; 0xfb
 2039870:	d80c      	bhi.n	203988c <nv_write_para_check.constprop.0+0x24>
 2039872:	4908      	ldr	r1, [pc, #32]	; (2039894 <nv_write_para_check.constprop.0+0x2c>)
 2039874:	eb02 0242 	add.w	r2, r2, r2, lsl #1
 2039878:	eb01 02c2 	add.w	r2, r1, r2, lsl #3
 203987c:	7c11      	ldrb	r1, [r2, #16]
 203987e:	f241 30ec 	movw	r0, #5100	; 0x13ec
 2039882:	2901      	cmp	r1, #1
 2039884:	bf08      	it	eq
 2039886:	2000      	moveq	r0, #0
 2039888:	601a      	str	r2, [r3, #0]
 203988a:	4770      	bx	lr
 203988c:	f241 30ee 	movw	r0, #5102	; 0x13ee
 2039890:	4770      	bx	lr
 2039892:	bf00      	nop
 2039894:	0203c360 	andeq	ip, r3, #96, 6	; 0x80000001

02039898 <nv_find_item.constprop.0>:
 2039898:	4b0e      	ldr	r3, [pc, #56]	; (20398d4 <nv_find_item.constprop.0+0x3c>)
 203989a:	eb01 0141 	add.w	r1, r1, r1, lsl #1
 203989e:	eb03 03c1 	add.w	r3, r3, r1, lsl #3
 20398a2:	b430      	push	{r4, r5}
 20398a4:	8a5d      	ldrh	r5, [r3, #18]
 20398a6:	695c      	ldr	r4, [r3, #20]
 20398a8:	b18d      	cbz	r5, 20398ce <nv_find_item.constprop.0+0x36>
 20398aa:	4601      	mov	r1, r0
 20398ac:	2300      	movs	r3, #0
 20398ae:	4620      	mov	r0, r4
 20398b0:	e003      	b.n	20398ba <nv_find_item.constprop.0+0x22>
 20398b2:	429d      	cmp	r5, r3
 20398b4:	f100 0004 	add.w	r0, r0, #4
 20398b8:	d006      	beq.n	20398c8 <nv_find_item.constprop.0+0x30>
 20398ba:	f814 2023 	ldrb.w	r2, [r4, r3, lsl #2]
 20398be:	3301      	adds	r3, #1
 20398c0:	428a      	cmp	r2, r1
 20398c2:	d1f6      	bne.n	20398b2 <nv_find_item.constprop.0+0x1a>
 20398c4:	bc30      	pop	{r4, r5}
 20398c6:	4770      	bx	lr
 20398c8:	2000      	movs	r0, #0
 20398ca:	bc30      	pop	{r4, r5}
 20398cc:	4770      	bx	lr
 20398ce:	4628      	mov	r0, r5
 20398d0:	e7f8      	b.n	20398c4 <nv_find_item.constprop.0+0x2c>
 20398d2:	bf00      	nop
 20398d4:	0203c360 	andeq	ip, r3, #96, 6	; 0x80000001

020398d8 <nv_repair_file.constprop.0>:
 20398d8:	b538      	push	{r3, r4, r5, lr}
 20398da:	f44f 5380 	mov.w	r3, #4096	; 0x1000
 20398de:	4615      	mov	r5, r2
 20398e0:	460a      	mov	r2, r1
 20398e2:	4619      	mov	r1, r3
 20398e4:	4604      	mov	r4, r0
 20398e6:	f002 fa87 	bl	203bdf8 <__memcpy_s_veneer>
 20398ea:	b100      	cbz	r0, 20398ee <nv_repair_file.constprop.0+0x16>
 20398ec:	bd38      	pop	{r3, r4, r5, pc}
 20398ee:	f640 72f8 	movw	r2, #4088	; 0xff8
 20398f2:	60e5      	str	r5, [r4, #12]
 20398f4:	f104 0108 	add.w	r1, r4, #8
 20398f8:	f7ff fdf4 	bl	20394e4 <uapi_crc32>
 20398fc:	6060      	str	r0, [r4, #4]
 20398fe:	bd38      	pop	{r3, r4, r5, pc}

02039900 <nv_init_data_check_once_fail>:
 2039900:	b570      	push	{r4, r5, r6, lr}
 2039902:	460e      	mov	r6, r1
 2039904:	4605      	mov	r5, r0
 2039906:	4611      	mov	r1, r2
 2039908:	9c04      	ldr	r4, [sp, #16]
 203990a:	b1ae      	cbz	r6, 2039938 <nv_init_data_check_once_fail+0x38>
 203990c:	f503 5280 	add.w	r2, r3, #4096	; 0x1000
 2039910:	e9c4 2300 	strd	r2, r3, [r4]
 2039914:	68ca      	ldr	r2, [r1, #12]
 2039916:	894b      	ldrh	r3, [r1, #10]
 2039918:	3201      	adds	r2, #1
 203991a:	8263      	strh	r3, [r4, #18]
 203991c:	f101 031c 	add.w	r3, r1, #28
 2039920:	4628      	mov	r0, r5
 2039922:	60a2      	str	r2, [r4, #8]
 2039924:	6163      	str	r3, [r4, #20]
 2039926:	f7ff ffd7 	bl	20398d8 <nv_repair_file.constprop.0>
 203992a:	f44f 5180 	mov.w	r1, #4096	; 0x1000
 203992e:	6860      	ldr	r0, [r4, #4]
 2039930:	f7ff fd06 	bl	2039340 <uapi_flash_erase>
 2039934:	b138      	cbz	r0, 2039946 <nv_init_data_check_once_fail+0x46>
 2039936:	bd70      	pop	{r4, r5, r6, pc}
 2039938:	460d      	mov	r5, r1
 203993a:	f503 5180 	add.w	r1, r3, #4096	; 0x1000
 203993e:	e9c4 3100 	strd	r3, r1, [r4]
 2039942:	4601      	mov	r1, r0
 2039944:	e7e6      	b.n	2039914 <nv_init_data_check_once_fail+0x14>
 2039946:	4603      	mov	r3, r0
 2039948:	462a      	mov	r2, r5
 203994a:	f44f 5180 	mov.w	r1, #4096	; 0x1000
 203994e:	6860      	ldr	r0, [r4, #4]
 2039950:	f7ff fd0e 	bl	2039370 <uapi_flash_write>
 2039954:	2800      	cmp	r0, #0
 2039956:	d1ee      	bne.n	2039936 <nv_init_data_check_once_fail+0x36>
 2039958:	e9d4 2300 	ldrd	r2, r3, [r4]
 203995c:	e9c4 3200 	strd	r3, r2, [r4]
 2039960:	bd70      	pop	{r4, r5, r6, pc}
 2039962:	bf00      	nop

02039964 <nv_init_data_check>:
 2039964:	e92d 47f0 	stmdb	sp!, {r4, r5, r6, r7, r8, r9, sl, lr}
 2039968:	9c08      	ldr	r4, [sp, #32]
 203996a:	4607      	mov	r7, r0
 203996c:	6820      	ldr	r0, [r4, #0]
 203996e:	b340      	cbz	r0, 20399c2 <nv_init_data_check+0x5e>
 2039970:	461e      	mov	r6, r3
 2039972:	6863      	ldr	r3, [r4, #4]
 2039974:	b32b      	cbz	r3, 20399c2 <nv_init_data_check+0x5e>
 2039976:	4689      	mov	r9, r1
 2039978:	f44f 5180 	mov.w	r1, #4096	; 0x1000
 203997c:	4615      	mov	r5, r2
 203997e:	f7ff feb9 	bl	20396f4 <nv_check_file>
 2039982:	462a      	mov	r2, r5
 2039984:	4682      	mov	sl, r0
 2039986:	f44f 5180 	mov.w	r1, #4096	; 0x1000
 203998a:	6860      	ldr	r0, [r4, #4]
 203998c:	f7ff feb2 	bl	20396f4 <nv_check_file>
 2039990:	4680      	mov	r8, r0
 2039992:	f1ba 0f00 	cmp.w	sl, #0
 2039996:	d009      	beq.n	20399ac <nv_init_data_check+0x48>
 2039998:	b9c0      	cbnz	r0, 20399cc <nv_init_data_check+0x68>
 203999a:	e9d4 0200 	ldrd	r0, r2, [r4]
 203999e:	463b      	mov	r3, r7
 20399a0:	4651      	mov	r1, sl
 20399a2:	9608      	str	r6, [sp, #32]
 20399a4:	e8bd 47f0 	ldmia.w	sp!, {r4, r5, r6, r7, r8, r9, sl, lr}
 20399a8:	f7ff bfaa 	b.w	2039900 <nv_init_data_check_once_fail>
 20399ac:	2800      	cmp	r0, #0
 20399ae:	d1f4      	bne.n	203999a <nv_init_data_check+0x36>
 20399b0:	e9d4 0100 	ldrd	r0, r1, [r4]
 20399b4:	4633      	mov	r3, r6
 20399b6:	463a      	mov	r2, r7
 20399b8:	f7ff fe66 	bl	2039688 <nv_init_data_check_all_success>
 20399bc:	4640      	mov	r0, r8
 20399be:	e8bd 87f0 	ldmia.w	sp!, {r4, r5, r6, r7, r8, r9, sl, pc}
 20399c2:	f04f 38ff 	mov.w	r8, #4294967295	; 0xffffffff
 20399c6:	4640      	mov	r0, r8
 20399c8:	e8bd 87f0 	ldmia.w	sp!, {r4, r5, r6, r7, r8, r9, sl, pc}
 20399cc:	6824      	ldr	r4, [r4, #0]
 20399ce:	4633      	mov	r3, r6
 20399d0:	462a      	mov	r2, r5
 20399d2:	4649      	mov	r1, r9
 20399d4:	4638      	mov	r0, r7
 20399d6:	9408      	str	r4, [sp, #32]
 20399d8:	e8bd 47f0 	ldmia.w	sp!, {r4, r5, r6, r7, r8, r9, sl, lr}
 20399dc:	f7ff bece 	b.w	203977c <nv_init_data_check_all_fail>

020399e0 <uint_2_multiply.constprop.0>:
 20399e0:	4603      	mov	r3, r0
 20399e2:	009b      	lsls	r3, r3, #2
 20399e4:	2001      	movs	r0, #1
 20399e6:	600b      	str	r3, [r1, #0]
 20399e8:	4770      	bx	lr
 20399ea:	bf00      	nop

020399ec <nv_init_index_space>:
 20399ec:	b530      	push	{r4, r5, lr}
 20399ee:	b083      	sub	sp, #12
 20399f0:	4604      	mov	r4, r0
 20399f2:	a901      	add	r1, sp, #4
 20399f4:	8a40      	ldrh	r0, [r0, #18]
 20399f6:	f7ff fff3 	bl	20399e0 <uint_2_multiply.constprop.0>
 20399fa:	b180      	cbz	r0, 2039a1e <nv_init_index_space+0x32>
 20399fc:	9801      	ldr	r0, [sp, #4]
 20399fe:	f002 f993 	bl	203bd28 <__boot_malloc_veneer>
 2039a02:	4605      	mov	r5, r0
 2039a04:	b178      	cbz	r0, 2039a26 <nv_init_index_space+0x3a>
 2039a06:	8a63      	ldrh	r3, [r4, #18]
 2039a08:	6962      	ldr	r2, [r4, #20]
 2039a0a:	9901      	ldr	r1, [sp, #4]
 2039a0c:	009b      	lsls	r3, r3, #2
 2039a0e:	f002 f9f3 	bl	203bdf8 <__memcpy_s_veneer>
 2039a12:	2301      	movs	r3, #1
 2039a14:	2000      	movs	r0, #0
 2039a16:	6165      	str	r5, [r4, #20]
 2039a18:	7423      	strb	r3, [r4, #16]
 2039a1a:	b003      	add	sp, #12
 2039a1c:	bd30      	pop	{r4, r5, pc}
 2039a1e:	f04f 30ff 	mov.w	r0, #4294967295	; 0xffffffff
 2039a22:	b003      	add	sp, #12
 2039a24:	bd30      	pop	{r4, r5, pc}
 2039a26:	f241 30ef 	movw	r0, #5103	; 0x13ef
 2039a2a:	b003      	add	sp, #12
 2039a2c:	bd30      	pop	{r4, r5, pc}
 2039a2e:	bf00      	nop

02039a30 <nv_init_common>:
 2039a30:	2300      	movs	r3, #0
 2039a32:	e92d 41f0 	stmdb	sp!, {r4, r5, r6, r7, r8, lr}
 2039a36:	4e26      	ldr	r6, [pc, #152]	; (2039ad0 <nv_init_common+0xa0>)
 2039a38:	b086      	sub	sp, #24
 2039a3a:	e9cd 3302 	strd	r3, r3, [sp, #8]
 2039a3e:	eb02 0342 	add.w	r3, r2, r2, lsl #1
 2039a42:	eb06 06c3 	add.w	r6, r6, r3, lsl #3
 2039a46:	7c33      	ldrb	r3, [r6, #16]
 2039a48:	2b01      	cmp	r3, #1
 2039a4a:	d02a      	beq.n	2039aa2 <nv_init_common+0x72>
 2039a4c:	4607      	mov	r7, r0
 2039a4e:	4688      	mov	r8, r1
 2039a50:	4601      	mov	r1, r0
 2039a52:	a802      	add	r0, sp, #8
 2039a54:	4615      	mov	r5, r2
 2039a56:	f7ff fe2f 	bl	20396b8 <nv_init_data_prepare>
 2039a5a:	4604      	mov	r4, r0
 2039a5c:	b138      	cbz	r0, 2039a6e <nv_init_common+0x3e>
 2039a5e:	9802      	ldr	r0, [sp, #8]
 2039a60:	b108      	cbz	r0, 2039a66 <nv_init_common+0x36>
 2039a62:	f002 f969 	bl	203bd38 <__boot_free_veneer>
 2039a66:	4620      	mov	r0, r4
 2039a68:	b006      	add	sp, #24
 2039a6a:	e8bd 81f0 	ldmia.w	sp!, {r4, r5, r6, r7, r8, pc}
 2039a6e:	f507 5180 	add.w	r1, r7, #4096	; 0x1000
 2039a72:	a803      	add	r0, sp, #12
 2039a74:	f7ff fe20 	bl	20396b8 <nv_init_data_prepare>
 2039a78:	4604      	mov	r4, r0
 2039a7a:	bb08      	cbnz	r0, 2039ac0 <nv_init_common+0x90>
 2039a7c:	9b02      	ldr	r3, [sp, #8]
 2039a7e:	462a      	mov	r2, r5
 2039a80:	9304      	str	r3, [sp, #16]
 2039a82:	9b03      	ldr	r3, [sp, #12]
 2039a84:	4641      	mov	r1, r8
 2039a86:	9305      	str	r3, [sp, #20]
 2039a88:	ab04      	add	r3, sp, #16
 2039a8a:	9300      	str	r3, [sp, #0]
 2039a8c:	4638      	mov	r0, r7
 2039a8e:	4633      	mov	r3, r6
 2039a90:	f7ff ff68 	bl	2039964 <nv_init_data_check>
 2039a94:	4604      	mov	r4, r0
 2039a96:	b150      	cbz	r0, 2039aae <nv_init_common+0x7e>
 2039a98:	9803      	ldr	r0, [sp, #12]
 2039a9a:	f002 f94d 	bl	203bd38 <__boot_free_veneer>
 2039a9e:	9802      	ldr	r0, [sp, #8]
 2039aa0:	e7df      	b.n	2039a62 <nv_init_common+0x32>
 2039aa2:	f241 34ed 	movw	r4, #5101	; 0x13ed
 2039aa6:	4620      	mov	r0, r4
 2039aa8:	b006      	add	sp, #24
 2039aaa:	e8bd 81f0 	ldmia.w	sp!, {r4, r5, r6, r7, r8, pc}
 2039aae:	8a73      	ldrh	r3, [r6, #18]
 2039ab0:	f5b3 7f80 	cmp.w	r3, #256	; 0x100
 2039ab4:	d8f0      	bhi.n	2039a98 <nv_init_common+0x68>
 2039ab6:	4630      	mov	r0, r6
 2039ab8:	f7ff ff98 	bl	20399ec <nv_init_index_space>
 2039abc:	4604      	mov	r4, r0
 2039abe:	e7eb      	b.n	2039a98 <nv_init_common+0x68>
 2039ac0:	9802      	ldr	r0, [sp, #8]
 2039ac2:	f002 f939 	bl	203bd38 <__boot_free_veneer>
 2039ac6:	9803      	ldr	r0, [sp, #12]
 2039ac8:	2800      	cmp	r0, #0
 2039aca:	d1ca      	bne.n	2039a62 <nv_init_common+0x32>
 2039acc:	e7cb      	b.n	2039a66 <nv_init_common+0x36>
 2039ace:	bf00      	nop
 2039ad0:	0203c360 	andeq	ip, r3, #96, 6	; 0x80000001

02039ad4 <nv_read_common>:
 2039ad4:	e92d 4ff0 	stmdb	sp!, {r4, r5, r6, r7, r8, r9, sl, fp, lr}
 2039ad8:	f04f 0800 	mov.w	r8, #0
 2039adc:	b083      	sub	sp, #12
 2039ade:	f8cd 8004 	str.w	r8, [sp, #4]
 2039ae2:	b309      	cbz	r1, 2039b28 <nv_read_common+0x54>
 2039ae4:	4615      	mov	r5, r2
 2039ae6:	b1fa      	cbz	r2, 2039b28 <nv_read_common+0x54>
 2039ae8:	461c      	mov	r4, r3
 2039aea:	f8df b0a8 	ldr.w	fp, [pc, #168]	; 2039b94 <nv_read_common+0xc0>
 2039aee:	eb03 0343 	add.w	r3, r3, r3, lsl #1
 2039af2:	eb0b 03c3 	add.w	r3, fp, r3, lsl #3
 2039af6:	f893 a010 	ldrb.w	sl, [r3, #16]
 2039afa:	ea4f 0944 	mov.w	r9, r4, lsl #1
 2039afe:	f1ba 0f01 	cmp.w	sl, #1
 2039b02:	d10b      	bne.n	2039b1c <nv_read_common+0x48>
 2039b04:	460e      	mov	r6, r1
 2039b06:	4621      	mov	r1, r4
 2039b08:	f7ff fec6 	bl	2039898 <nv_find_item.constprop.0>
 2039b0c:	4607      	mov	r7, r0
 2039b0e:	b988      	cbnz	r0, 2039b34 <nv_read_common+0x60>
 2039b10:	f241 34f3 	movw	r4, #5107	; 0x13f3
 2039b14:	4620      	mov	r0, r4
 2039b16:	b003      	add	sp, #12
 2039b18:	e8bd 8ff0 	ldmia.w	sp!, {r4, r5, r6, r7, r8, r9, sl, fp, pc}
 2039b1c:	f241 34ec 	movw	r4, #5100	; 0x13ec
 2039b20:	4620      	mov	r0, r4
 2039b22:	b003      	add	sp, #12
 2039b24:	e8bd 8ff0 	ldmia.w	sp!, {r4, r5, r6, r7, r8, r9, sl, fp, pc}
 2039b28:	f241 34ee 	movw	r4, #5102	; 0x13ee
 2039b2c:	4620      	mov	r0, r4
 2039b2e:	b003      	add	sp, #12
 2039b30:	e8bd 8ff0 	ldmia.w	sp!, {r4, r5, r6, r7, r8, r9, sl, fp, pc}
 2039b34:	7843      	ldrb	r3, [r0, #1]
 2039b36:	42ab      	cmp	r3, r5
 2039b38:	d003      	beq.n	2039b42 <nv_read_common+0x6e>
 2039b3a:	429d      	cmp	r5, r3
 2039b3c:	bf28      	it	cs
 2039b3e:	461d      	movcs	r5, r3
 2039b40:	46c2      	mov	sl, r8
 2039b42:	f04f 0803 	mov.w	r8, #3
 2039b46:	44a1      	add	r9, r4
 2039b48:	eb0b 09c9 	add.w	r9, fp, r9, lsl #3
 2039b4c:	8878      	ldrh	r0, [r7, #2]
 2039b4e:	f8d9 3000 	ldr.w	r3, [r9]
 2039b52:	4632      	mov	r2, r6
 2039b54:	4629      	mov	r1, r5
 2039b56:	4418      	add	r0, r3
 2039b58:	f7ff fc2c 	bl	20393b4 <uapi_flash_read>
 2039b5c:	4604      	mov	r4, r0
 2039b5e:	b998      	cbnz	r0, 2039b88 <nv_read_common+0xb4>
 2039b60:	f1ba 0f01 	cmp.w	sl, #1
 2039b64:	d1d6      	bne.n	2039b14 <nv_read_common+0x40>
 2039b66:	8878      	ldrh	r0, [r7, #2]
 2039b68:	f8d9 3000 	ldr.w	r3, [r9]
 2039b6c:	2104      	movs	r1, #4
 2039b6e:	4418      	add	r0, r3
 2039b70:	4428      	add	r0, r5
 2039b72:	aa01      	add	r2, sp, #4
 2039b74:	f7ff fc1e 	bl	20393b4 <uapi_flash_read>
 2039b78:	b930      	cbnz	r0, 2039b88 <nv_read_common+0xb4>
 2039b7a:	462a      	mov	r2, r5
 2039b7c:	4631      	mov	r1, r6
 2039b7e:	f7ff fcb1 	bl	20394e4 <uapi_crc32>
 2039b82:	9b01      	ldr	r3, [sp, #4]
 2039b84:	4298      	cmp	r0, r3
 2039b86:	d0c5      	beq.n	2039b14 <nv_read_common+0x40>
 2039b88:	f1b8 0801 	subs.w	r8, r8, #1
 2039b8c:	d1de      	bne.n	2039b4c <nv_read_common+0x78>
 2039b8e:	f241 34f4 	movw	r4, #5108	; 0x13f4
 2039b92:	e7bf      	b.n	2039b14 <nv_read_common+0x40>
 2039b94:	0203c360 	andeq	ip, r3, #96, 6	; 0x80000001

02039b98 <nv_write_cmp_readback>:
 2039b98:	e92d 41f0 	stmdb	sp!, {r4, r5, r6, r7, r8, lr}
 2039b9c:	4605      	mov	r5, r0
 2039b9e:	20fc      	movs	r0, #252	; 0xfc
 2039ba0:	460f      	mov	r7, r1
 2039ba2:	4616      	mov	r6, r2
 2039ba4:	4698      	mov	r8, r3
 2039ba6:	f002 f8bf 	bl	203bd28 <__boot_malloc_veneer>
 2039baa:	b1e0      	cbz	r0, 2039be6 <nv_write_cmp_readback+0x4e>
 2039bac:	4604      	mov	r4, r0
 2039bae:	4643      	mov	r3, r8
 2039bb0:	4628      	mov	r0, r5
 2039bb2:	4632      	mov	r2, r6
 2039bb4:	4621      	mov	r1, r4
 2039bb6:	f7ff ff8d 	bl	2039ad4 <nv_read_common>
 2039bba:	4605      	mov	r5, r0
 2039bbc:	b968      	cbnz	r0, 2039bda <nv_write_cmp_readback+0x42>
 2039bbe:	4632      	mov	r2, r6
 2039bc0:	4621      	mov	r1, r4
 2039bc2:	4638      	mov	r0, r7
 2039bc4:	f002 f894 	bl	203bcf0 <__memcmp_veneer>
 2039bc8:	b138      	cbz	r0, 2039bda <nv_write_cmp_readback+0x42>
 2039bca:	f241 35f3 	movw	r5, #5107	; 0x13f3
 2039bce:	4620      	mov	r0, r4
 2039bd0:	f002 f8b2 	bl	203bd38 <__boot_free_veneer>
 2039bd4:	4628      	mov	r0, r5
 2039bd6:	e8bd 81f0 	ldmia.w	sp!, {r4, r5, r6, r7, r8, pc}
 2039bda:	4620      	mov	r0, r4
 2039bdc:	f002 f8ac 	bl	203bd38 <__boot_free_veneer>
 2039be0:	4628      	mov	r0, r5
 2039be2:	e8bd 81f0 	ldmia.w	sp!, {r4, r5, r6, r7, r8, pc}
 2039be6:	f241 35ef 	movw	r5, #5103	; 0x13ef
 2039bea:	4628      	mov	r0, r5
 2039bec:	e8bd 81f0 	ldmia.w	sp!, {r4, r5, r6, r7, r8, pc}

02039bf0 <nv_write_common>:
 2039bf0:	e92d 43f0 	stmdb	sp!, {r4, r5, r6, r7, r8, r9, lr}
 2039bf4:	461d      	mov	r5, r3
 2039bf6:	4688      	mov	r8, r1
 2039bf8:	4617      	mov	r7, r2
 2039bfa:	2400      	movs	r4, #0
 2039bfc:	b087      	sub	sp, #28
 2039bfe:	2d01      	cmp	r5, #1
 2039c00:	4681      	mov	r9, r0
 2039c02:	462a      	mov	r2, r5
 2039c04:	4639      	mov	r1, r7
 2039c06:	4640      	mov	r0, r8
 2039c08:	ab02      	add	r3, sp, #8
 2039c0a:	bf0c      	ite	eq
 2039c0c:	2602      	moveq	r6, #2
 2039c0e:	2601      	movne	r6, #1
 2039c10:	e9cd 4402 	strd	r4, r4, [sp, #8]
 2039c14:	f7ff fe28 	bl	2039868 <nv_write_para_check.constprop.0>
 2039c18:	b110      	cbz	r0, 2039c20 <nv_write_common+0x30>
 2039c1a:	b007      	add	sp, #28
 2039c1c:	e8bd 83f0 	ldmia.w	sp!, {r4, r5, r6, r7, r8, r9, pc}
 2039c20:	462b      	mov	r3, r5
 2039c22:	463a      	mov	r2, r7
 2039c24:	4641      	mov	r1, r8
 2039c26:	4648      	mov	r0, r9
 2039c28:	f7ff ffb6 	bl	2039b98 <nv_write_cmp_readback>
 2039c2c:	f241 33f3 	movw	r3, #5107	; 0x13f3
 2039c30:	4298      	cmp	r0, r3
 2039c32:	4604      	mov	r4, r0
 2039c34:	d148      	bne.n	2039cc8 <nv_write_common+0xd8>
 2039c36:	4629      	mov	r1, r5
 2039c38:	4648      	mov	r0, r9
 2039c3a:	f7ff fe2d 	bl	2039898 <nv_find_item.constprop.0>
 2039c3e:	4605      	mov	r5, r0
 2039c40:	2800      	cmp	r0, #0
 2039c42:	d041      	beq.n	2039cc8 <nv_write_common+0xd8>
 2039c44:	f8cd 8010 	str.w	r8, [sp, #16]
 2039c48:	f88d 7014 	strb.w	r7, [sp, #20]
 2039c4c:	7842      	ldrb	r2, [r0, #1]
 2039c4e:	42ba      	cmp	r2, r7
 2039c50:	d004      	beq.n	2039c5c <nv_write_common+0x6c>
 2039c52:	42ba      	cmp	r2, r7
 2039c54:	bf28      	it	cs
 2039c56:	463a      	movcs	r2, r7
 2039c58:	f88d 2014 	strb.w	r2, [sp, #20]
 2039c5c:	f44f 5080 	mov.w	r0, #4096	; 0x1000
 2039c60:	f002 f862 	bl	203bd28 <__boot_malloc_veneer>
 2039c64:	f10d 080c 	add.w	r8, sp, #12
 2039c68:	4607      	mov	r7, r0
 2039c6a:	9902      	ldr	r1, [sp, #8]
 2039c6c:	e00c      	b.n	2039c88 <nv_write_common+0x98>
 2039c6e:	e9dd 1302 	ldrd	r1, r3, [sp, #8]
 2039c72:	e9d1 2400 	ldrd	r2, r4, [r1]
 2039c76:	e9c1 4200 	strd	r4, r2, [r1]
 2039c7a:	b113      	cbz	r3, 2039c82 <nv_write_common+0x92>
 2039c7c:	68db      	ldr	r3, [r3, #12]
 2039c7e:	9003      	str	r0, [sp, #12]
 2039c80:	608b      	str	r3, [r1, #8]
 2039c82:	2e01      	cmp	r6, #1
 2039c84:	d024      	beq.n	2039cd0 <nv_write_common+0xe0>
 2039c86:	2601      	movs	r6, #1
 2039c88:	2400      	movs	r4, #0
 2039c8a:	462b      	mov	r3, r5
 2039c8c:	463a      	mov	r2, r7
 2039c8e:	a804      	add	r0, sp, #16
 2039c90:	f8cd 8000 	str.w	r8, [sp]
 2039c94:	f7ff fd8c 	bl	20397b0 <nv_write_update_data>
 2039c98:	2800      	cmp	r0, #0
 2039c9a:	d0e8      	beq.n	2039c6e <nv_write_common+0x7e>
 2039c9c:	3401      	adds	r4, #1
 2039c9e:	2c03      	cmp	r4, #3
 2039ca0:	d11d      	bne.n	2039cde <nv_write_common+0xee>
 2039ca2:	e9dd 3202 	ldrd	r3, r2, [sp, #8]
 2039ca6:	e9d3 0100 	ldrd	r0, r1, [r3]
 2039caa:	e9c3 1000 	strd	r1, r0, [r3]
 2039cae:	b11a      	cbz	r2, 2039cb8 <nv_write_common+0xc8>
 2039cb0:	2100      	movs	r1, #0
 2039cb2:	68d2      	ldr	r2, [r2, #12]
 2039cb4:	9103      	str	r1, [sp, #12]
 2039cb6:	609a      	str	r2, [r3, #8]
 2039cb8:	4638      	mov	r0, r7
 2039cba:	f002 f83d 	bl	203bd38 <__boot_free_veneer>
 2039cbe:	f241 30f4 	movw	r0, #5108	; 0x13f4
 2039cc2:	b007      	add	sp, #28
 2039cc4:	e8bd 83f0 	ldmia.w	sp!, {r4, r5, r6, r7, r8, r9, pc}
 2039cc8:	4620      	mov	r0, r4
 2039cca:	b007      	add	sp, #28
 2039ccc:	e8bd 83f0 	ldmia.w	sp!, {r4, r5, r6, r7, r8, r9, pc}
 2039cd0:	4638      	mov	r0, r7
 2039cd2:	f002 f831 	bl	203bd38 <__boot_free_veneer>
 2039cd6:	2000      	movs	r0, #0
 2039cd8:	b007      	add	sp, #28
 2039cda:	e8bd 83f0 	ldmia.w	sp!, {r4, r5, r6, r7, r8, r9, pc}
 2039cde:	9902      	ldr	r1, [sp, #8]
 2039ce0:	e7d3      	b.n	2039c8a <nv_write_common+0x9a>
 2039ce2:	bf00      	nop

02039ce4 <uapi_factory_nv_init>:
 2039ce4:	2201      	movs	r2, #1
 2039ce6:	2100      	movs	r1, #0
 2039ce8:	f7ff bea2 	b.w	2039a30 <nv_init_common>

02039cec <uapi_factory_nv_read>:
 2039cec:	2301      	movs	r3, #1
 2039cee:	f7ff bef1 	b.w	2039ad4 <nv_read_common>
 2039cf2:	bf00      	nop

02039cf4 <uapi_factory_nv_write>:
 2039cf4:	2301      	movs	r3, #1
 2039cf6:	f7ff bf7b 	b.w	2039bf0 <nv_write_common>
 2039cfa:	bf00      	nop

02039cfc <uapi_temp_nv_init>:
 2039cfc:	2202      	movs	r2, #2
 2039cfe:	f7ff be97 	b.w	2039a30 <nv_init_common>
 2039d02:	bf00      	nop

02039d04 <uapi_common_nv_read>:
 2039d04:	f7ff bee6 	b.w	2039ad4 <nv_read_common>

02039d08 <uapi_common_nv_write>:
 2039d08:	f7ff bf72 	b.w	2039bf0 <nv_write_common>

02039d0c <uapi_nv_check_file>:
 2039d0c:	2300      	movs	r3, #0
 2039d0e:	b570      	push	{r4, r5, r6, lr}
 2039d10:	b088      	sub	sp, #32
 2039d12:	211c      	movs	r1, #28
 2039d14:	aa01      	add	r2, sp, #4
 2039d16:	4605      	mov	r5, r0
 2039d18:	e9cd 3302 	strd	r3, r3, [sp, #8]
 2039d1c:	e9cd 3304 	strd	r3, r3, [sp, #16]
 2039d20:	e9cd 3306 	strd	r3, r3, [sp, #24]
 2039d24:	9301      	str	r3, [sp, #4]
 2039d26:	f7ff fb45 	bl	20393b4 <uapi_flash_read>
 2039d2a:	4604      	mov	r4, r0
 2039d2c:	b110      	cbz	r0, 2039d34 <uapi_nv_check_file+0x28>
 2039d2e:	4620      	mov	r0, r4
 2039d30:	b008      	add	sp, #32
 2039d32:	bd70      	pop	{r4, r5, r6, pc}
 2039d34:	9806      	ldr	r0, [sp, #24]
 2039d36:	f001 fff7 	bl	203bd28 <__boot_malloc_veneer>
 2039d3a:	4606      	mov	r6, r0
 2039d3c:	b190      	cbz	r0, 2039d64 <uapi_nv_check_file+0x58>
 2039d3e:	4602      	mov	r2, r0
 2039d40:	9906      	ldr	r1, [sp, #24]
 2039d42:	4628      	mov	r0, r5
 2039d44:	f7ff fb36 	bl	20393b4 <uapi_flash_read>
 2039d48:	4604      	mov	r4, r0
 2039d4a:	b928      	cbnz	r0, 2039d58 <uapi_nv_check_file+0x4c>
 2039d4c:	4602      	mov	r2, r0
 2039d4e:	9906      	ldr	r1, [sp, #24]
 2039d50:	4630      	mov	r0, r6
 2039d52:	f7ff fccf 	bl	20396f4 <nv_check_file>
 2039d56:	4604      	mov	r4, r0
 2039d58:	4630      	mov	r0, r6
 2039d5a:	f001 ffed 	bl	203bd38 <__boot_free_veneer>
 2039d5e:	4620      	mov	r0, r4
 2039d60:	b008      	add	sp, #32
 2039d62:	bd70      	pop	{r4, r5, r6, pc}
 2039d64:	f241 34ef 	movw	r4, #5103	; 0x13ef
 2039d68:	e7e1      	b.n	2039d2e <uapi_nv_check_file+0x22>
 2039d6a:	bf00      	nop

02039d6c <uapi_nv_get_ver>:
 2039d6c:	b151      	cbz	r1, 2039d84 <uapi_nv_get_ver+0x18>
 2039d6e:	460a      	mov	r2, r1
 2039d70:	b508      	push	{r3, lr}
 2039d72:	2104      	movs	r1, #4
 2039d74:	3010      	adds	r0, #16
 2039d76:	f7ff fb1d 	bl	20393b4 <uapi_flash_read>
 2039d7a:	3800      	subs	r0, #0
 2039d7c:	bf18      	it	ne
 2039d7e:	2001      	movne	r0, #1
 2039d80:	4240      	negs	r0, r0
 2039d82:	bd08      	pop	{r3, pc}
 2039d84:	f241 30ee 	movw	r0, #5102	; 0x13ee
 2039d88:	4770      	bx	lr
 2039d8a:	bf00      	nop

02039d8c <flash_partition_get_ver>:
 2039d8c:	b570      	push	{r4, r5, r6, lr}
 2039d8e:	4606      	mov	r6, r0
 2039d90:	203c      	movs	r0, #60	; 0x3c
 2039d92:	f001 ffc9 	bl	203bd28 <__boot_malloc_veneer>
 2039d96:	4604      	mov	r4, r0
 2039d98:	2301      	movs	r3, #1
 2039d9a:	223c      	movs	r2, #60	; 0x3c
 2039d9c:	2004      	movs	r0, #4
 2039d9e:	4621      	mov	r1, r4
 2039da0:	f7ff ffb0 	bl	2039d04 <uapi_common_nv_read>
 2039da4:	4605      	mov	r5, r0
 2039da6:	b908      	cbnz	r0, 2039dac <flash_partition_get_ver+0x20>
 2039da8:	6823      	ldr	r3, [r4, #0]
 2039daa:	6033      	str	r3, [r6, #0]
 2039dac:	4620      	mov	r0, r4
 2039dae:	f001 ffc3 	bl	203bd38 <__boot_free_veneer>
 2039db2:	4628      	mov	r0, r5
 2039db4:	bd70      	pop	{r4, r5, r6, pc}
 2039db6:	bf00      	nop

02039db8 <flash_partition_check_ver>:
 2039db8:	7803      	ldrb	r3, [r0, #0]
 2039dba:	07db      	lsls	r3, r3, #31
 2039dbc:	d520      	bpl.n	2039e00 <flash_partition_check_ver+0x48>
 2039dbe:	b510      	push	{r4, lr}
 2039dc0:	b082      	sub	sp, #8
 2039dc2:	4604      	mov	r4, r0
 2039dc4:	a801      	add	r0, sp, #4
 2039dc6:	f7ff ffe1 	bl	2039d8c <flash_partition_get_ver>
 2039dca:	b9b0      	cbnz	r0, 2039dfa <flash_partition_check_ver+0x42>
 2039dcc:	f89d 3005 	ldrb.w	r3, [sp, #5]
 2039dd0:	f013 0ff8 	tst.w	r3, #248	; 0xf8
 2039dd4:	d011      	beq.n	2039dfa <flash_partition_check_ver+0x42>
 2039dd6:	8862      	ldrh	r2, [r4, #2]
 2039dd8:	f8bd 1006 	ldrh.w	r1, [sp, #6]
 2039ddc:	4211      	tst	r1, r2
 2039dde:	d00c      	beq.n	2039dfa <flash_partition_check_ver+0x42>
 2039de0:	7862      	ldrb	r2, [r4, #1]
 2039de2:	08d1      	lsrs	r1, r2, #3
 2039de4:	ebb1 0fd3 	cmp.w	r1, r3, lsr #3
 2039de8:	d307      	bcc.n	2039dfa <flash_partition_check_ver+0x42>
 2039dea:	4053      	eors	r3, r2
 2039dec:	f013 0ff8 	tst.w	r3, #248	; 0xf8
 2039df0:	bf14      	ite	ne
 2039df2:	2001      	movne	r0, #1
 2039df4:	2000      	moveq	r0, #0
 2039df6:	b002      	add	sp, #8
 2039df8:	bd10      	pop	{r4, pc}
 2039dfa:	2002      	movs	r0, #2
 2039dfc:	b002      	add	sp, #8
 2039dfe:	bd10      	pop	{r4, pc}
 2039e00:	2002      	movs	r0, #2
 2039e02:	4770      	bx	lr

02039e04 <uapi_flash_partition_refresh_free_memery>:
 2039e04:	b538      	push	{r3, r4, r5, lr}
 2039e06:	460d      	mov	r5, r1
 2039e08:	4604      	mov	r4, r0
 2039e0a:	4610      	mov	r0, r2
 2039e0c:	f001 ff94 	bl	203bd38 <__boot_free_veneer>
 2039e10:	4628      	mov	r0, r5
 2039e12:	f001 ff91 	bl	203bd38 <__boot_free_veneer>
 2039e16:	4620      	mov	r0, r4
 2039e18:	e8bd 4038 	ldmia.w	sp!, {r3, r4, r5, lr}
 2039e1c:	f001 bf8c 	b.w	203bd38 <__boot_free_veneer>

02039e20 <uapi_flash_self_check>:
 2039e20:	e92d 41f0 	stmdb	sp!, {r4, r5, r6, r7, r8, lr}
 2039e24:	4605      	mov	r5, r0
 2039e26:	4617      	mov	r7, r2
 2039e28:	4698      	mov	r8, r3
 2039e2a:	2238      	movs	r2, #56	; 0x38
 2039e2c:	2301      	movs	r3, #1
 2039e2e:	2006      	movs	r0, #6
 2039e30:	460e      	mov	r6, r1
 2039e32:	4629      	mov	r1, r5
 2039e34:	f7ff ff66 	bl	2039d04 <uapi_common_nv_read>
 2039e38:	4604      	mov	r4, r0
 2039e3a:	b918      	cbnz	r0, 2039e44 <uapi_flash_self_check+0x24>
 2039e3c:	f995 3007 	ldrsb.w	r3, [r5, #7]
 2039e40:	2b00      	cmp	r3, #0
 2039e42:	db02      	blt.n	2039e4a <uapi_flash_self_check+0x2a>
 2039e44:	4620      	mov	r0, r4
 2039e46:	e8bd 81f0 	ldmia.w	sp!, {r4, r5, r6, r7, r8, pc}
 2039e4a:	2301      	movs	r3, #1
 2039e4c:	4631      	mov	r1, r6
 2039e4e:	223c      	movs	r2, #60	; 0x3c
 2039e50:	2005      	movs	r0, #5
 2039e52:	f7ff ff57 	bl	2039d04 <uapi_common_nv_read>
 2039e56:	4604      	mov	r4, r0
 2039e58:	2800      	cmp	r0, #0
 2039e5a:	d1f3      	bne.n	2039e44 <uapi_flash_self_check+0x24>
 2039e5c:	88a8      	ldrh	r0, [r5, #4]
 2039e5e:	f3c0 030b 	ubfx	r3, r0, #0, #12
 2039e62:	b92b      	cbnz	r3, 2039e70 <uapi_flash_self_check+0x50>
 2039e64:	2301      	movs	r3, #1
 2039e66:	f888 3000 	strb.w	r3, [r8]
 2039e6a:	4620      	mov	r0, r4
 2039e6c:	e8bd 81f0 	ldmia.w	sp!, {r4, r5, r6, r7, r8, pc}
 2039e70:	8939      	ldrh	r1, [r7, #8]
 2039e72:	0318      	lsls	r0, r3, #12
 2039e74:	f3c1 010b 	ubfx	r1, r1, #0, #12
 2039e78:	0309      	lsls	r1, r1, #12
 2039e7a:	f7ff ff3f 	bl	2039cfc <uapi_temp_nv_init>
 2039e7e:	b108      	cbz	r0, 2039e84 <uapi_flash_self_check+0x64>
 2039e80:	4604      	mov	r4, r0
 2039e82:	e7df      	b.n	2039e44 <uapi_flash_self_check+0x24>
 2039e84:	2302      	movs	r3, #2
 2039e86:	2238      	movs	r2, #56	; 0x38
 2039e88:	4629      	mov	r1, r5
 2039e8a:	2006      	movs	r0, #6
 2039e8c:	f7ff ff3a 	bl	2039d04 <uapi_common_nv_read>
 2039e90:	2800      	cmp	r0, #0
 2039e92:	d1f5      	bne.n	2039e80 <uapi_flash_self_check+0x60>
 2039e94:	2302      	movs	r3, #2
 2039e96:	e7e6      	b.n	2039e66 <uapi_flash_self_check+0x46>

02039e98 <uapi_flash_partition_refresh_malloc.constprop.0>:
 2039e98:	b5f8      	push	{r3, r4, r5, r6, r7, lr}
 2039e9a:	4605      	mov	r5, r0
 2039e9c:	2038      	movs	r0, #56	; 0x38
 2039e9e:	460e      	mov	r6, r1
 2039ea0:	4617      	mov	r7, r2
 2039ea2:	f001 ff41 	bl	203bd28 <__boot_malloc_veneer>
 2039ea6:	6028      	str	r0, [r5, #0]
 2039ea8:	b168      	cbz	r0, 2039ec6 <uapi_flash_partition_refresh_malloc.constprop.0+0x2e>
 2039eaa:	203c      	movs	r0, #60	; 0x3c
 2039eac:	f001 ff3c 	bl	203bd28 <__boot_malloc_veneer>
 2039eb0:	4604      	mov	r4, r0
 2039eb2:	6030      	str	r0, [r6, #0]
 2039eb4:	b158      	cbz	r0, 2039ece <uapi_flash_partition_refresh_malloc.constprop.0+0x36>
 2039eb6:	f44f 5080 	mov.w	r0, #4096	; 0x1000
 2039eba:	f001 ff35 	bl	203bd28 <__boot_malloc_veneer>
 2039ebe:	4604      	mov	r4, r0
 2039ec0:	6038      	str	r0, [r7, #0]
 2039ec2:	2001      	movs	r0, #1
 2039ec4:	b104      	cbz	r4, 2039ec8 <uapi_flash_partition_refresh_malloc.constprop.0+0x30>
 2039ec6:	bdf8      	pop	{r3, r4, r5, r6, r7, pc}
 2039ec8:	6830      	ldr	r0, [r6, #0]
 2039eca:	f001 ff35 	bl	203bd38 <__boot_free_veneer>
 2039ece:	6828      	ldr	r0, [r5, #0]
 2039ed0:	f001 ff32 	bl	203bd38 <__boot_free_veneer>
 2039ed4:	4620      	mov	r0, r4
 2039ed6:	bdf8      	pop	{r3, r4, r5, r6, r7, pc}

02039ed8 <uapi_get_partition_table>:
 2039ed8:	4800      	ldr	r0, [pc, #0]	; (2039edc <uapi_get_partition_table+0x4>)
 2039eda:	4770      	bx	lr
 2039edc:	0203c3a8 	andeq	ip, r3, #168, 6	; 0xa0000002

02039ee0 <uapi_flash_partition_refresh_proc55>:
 2039ee0:	e92d 4ff0 	stmdb	sp!, {r4, r5, r6, r7, r8, r9, sl, fp, lr}
 2039ee4:	4683      	mov	fp, r0
 2039ee6:	b089      	sub	sp, #36	; 0x24
 2039ee8:	9106      	str	r1, [sp, #24]
 2039eea:	f7ff fff5 	bl	2039ed8 <uapi_get_partition_table>
 2039eee:	f8db 4004 	ldr.w	r4, [fp, #4]
 2039ef2:	9007      	str	r0, [sp, #28]
 2039ef4:	f414 3ff8 	tst.w	r4, #126976	; 0x1f000
 2039ef8:	f000 80a5 	beq.w	203a046 <uapi_flash_partition_refresh_proc55+0x166>
 2039efc:	4699      	mov	r9, r3
 2039efe:	2300      	movs	r3, #0
 2039f00:	4692      	mov	sl, r2
 2039f02:	9304      	str	r3, [sp, #16]
 2039f04:	9b04      	ldr	r3, [sp, #16]
 2039f06:	3302      	adds	r3, #2
 2039f08:	9305      	str	r3, [sp, #20]
 2039f0a:	eb0b 0383 	add.w	r3, fp, r3, lsl #2
 2039f0e:	78df      	ldrb	r7, [r3, #3]
 2039f10:	06bb      	lsls	r3, r7, #26
 2039f12:	f140 808e 	bpl.w	203a032 <uapi_flash_partition_refresh_proc55+0x152>
 2039f16:	f007 071f 	and.w	r7, r7, #31
 2039f1a:	2f0b      	cmp	r7, #11
 2039f1c:	f200 8089 	bhi.w	203a032 <uapi_flash_partition_refresh_proc55+0x152>
 2039f20:	9b06      	ldr	r3, [sp, #24]
 2039f22:	eb03 0187 	add.w	r1, r3, r7, lsl #2
 2039f26:	9b07      	ldr	r3, [sp, #28]
 2039f28:	f8b1 8004 	ldrh.w	r8, [r1, #4]
 2039f2c:	eb03 0287 	add.w	r2, r3, r7, lsl #2
 2039f30:	8893      	ldrh	r3, [r2, #4]
 2039f32:	6855      	ldr	r5, [r2, #4]
 2039f34:	684a      	ldr	r2, [r1, #4]
 2039f36:	79ce      	ldrb	r6, [r1, #7]
 2039f38:	f3c3 030b 	ubfx	r3, r3, #0, #12
 2039f3c:	f3c8 080b 	ubfx	r8, r8, #0, #12
 2039f40:	f3c5 350b 	ubfx	r5, r5, #12, #12
 2039f44:	f3c2 320b 	ubfx	r2, r2, #12, #12
 2039f48:	1958      	adds	r0, r3, r5
 2039f4a:	eb08 0102 	add.w	r1, r8, r2
 2039f4e:	09f6      	lsrs	r6, r6, #7
 2039f50:	ea4f 3303 	mov.w	r3, r3, lsl #12
 2039f54:	ea4f 3000 	mov.w	r0, r0, lsl #12
 2039f58:	ea4f 3808 	mov.w	r8, r8, lsl #12
 2039f5c:	ea4f 3101 	mov.w	r1, r1, lsl #12
 2039f60:	d173      	bne.n	203a04a <uapi_flash_partition_refresh_proc55+0x16a>
 2039f62:	4543      	cmp	r3, r8
 2039f64:	d065      	beq.n	203a032 <uapi_flash_partition_refresh_proc55+0x152>
 2039f66:	4295      	cmp	r5, r2
 2039f68:	bf94      	ite	ls
 2039f6a:	032a      	lslls	r2, r5, #12
 2039f6c:	0312      	lslhi	r2, r2, #12
 2039f6e:	9202      	str	r2, [sp, #8]
 2039f70:	9a05      	ldr	r2, [sp, #20]
 2039f72:	3702      	adds	r7, #2
 2039f74:	eb0b 0282 	add.w	r2, fp, r2, lsl #2
 2039f78:	f83b 5027 	ldrh.w	r5, [fp, r7, lsl #2]
 2039f7c:	78d2      	ldrb	r2, [r2, #3]
 2039f7e:	f3c5 050b 	ubfx	r5, r5, #0, #12
 2039f82:	0992      	lsrs	r2, r2, #6
 2039f84:	032d      	lsls	r5, r5, #12
 2039f86:	2a01      	cmp	r2, #1
 2039f88:	462e      	mov	r6, r5
 2039f8a:	d06c      	beq.n	203a066 <uapi_flash_partition_refresh_proc55+0x186>
 2039f8c:	4543      	cmp	r3, r8
 2039f8e:	d368      	bcc.n	203a062 <uapi_flash_partition_refresh_proc55+0x182>
 2039f90:	f44f 5280 	mov.w	r2, #4096	; 0x1000
 2039f94:	9203      	str	r2, [sp, #12]
 2039f96:	441d      	add	r5, r3
 2039f98:	eba8 0303 	sub.w	r3, r8, r3
 2039f9c:	9301      	str	r3, [sp, #4]
 2039f9e:	e02f      	b.n	203a000 <uapi_flash_partition_refresh_proc55+0x120>
 2039fa0:	4652      	mov	r2, sl
 2039fa2:	f44f 5180 	mov.w	r1, #4096	; 0x1000
 2039fa6:	4628      	mov	r0, r5
 2039fa8:	f7ff fa04 	bl	20393b4 <uapi_flash_read>
 2039fac:	4604      	mov	r4, r0
 2039fae:	2800      	cmp	r0, #0
 2039fb0:	d14e      	bne.n	203a050 <uapi_flash_partition_refresh_proc55+0x170>
 2039fb2:	9b03      	ldr	r3, [sp, #12]
 2039fb4:	4642      	mov	r2, r8
 2039fb6:	4629      	mov	r1, r5
 2039fb8:	482f      	ldr	r0, [pc, #188]	; (203a078 <uapi_flash_partition_refresh_proc55+0x198>)
 2039fba:	441d      	add	r5, r3
 2039fbc:	f001 fe9c 	bl	203bcf8 <__boot_msg2_veneer>
 2039fc0:	f44f 5180 	mov.w	r1, #4096	; 0x1000
 2039fc4:	4640      	mov	r0, r8
 2039fc6:	f7ff f9bb 	bl	2039340 <uapi_flash_erase>
 2039fca:	4601      	mov	r1, r0
 2039fcc:	4623      	mov	r3, r4
 2039fce:	4652      	mov	r2, sl
 2039fd0:	460c      	mov	r4, r1
 2039fd2:	4640      	mov	r0, r8
 2039fd4:	f44f 5180 	mov.w	r1, #4096	; 0x1000
 2039fd8:	f7ff f9ca 	bl	2039370 <uapi_flash_write>
 2039fdc:	4304      	orrs	r4, r0
 2039fde:	ea4f 3116 	mov.w	r1, r6, lsr #12
 2039fe2:	d135      	bne.n	203a050 <uapi_flash_partition_refresh_proc55+0x170>
 2039fe4:	f83b 2027 	ldrh.w	r2, [fp, r7, lsl #2]
 2039fe8:	464b      	mov	r3, r9
 2039fea:	f361 020b 	bfi	r2, r1, #0, #12
 2039fee:	f82b 2027 	strh.w	r2, [fp, r7, lsl #2]
 2039ff2:	4659      	mov	r1, fp
 2039ff4:	2238      	movs	r2, #56	; 0x38
 2039ff6:	2006      	movs	r0, #6
 2039ff8:	f7ff fe84 	bl	2039d04 <uapi_common_nv_read>
 2039ffc:	4604      	mov	r4, r0
 2039ffe:	bb38      	cbnz	r0, 203a050 <uapi_flash_partition_refresh_proc55+0x170>
 203a000:	9b01      	ldr	r3, [sp, #4]
 203a002:	eb03 0805 	add.w	r8, r3, r5
 203a006:	9b02      	ldr	r3, [sp, #8]
 203a008:	429e      	cmp	r6, r3
 203a00a:	f506 5680 	add.w	r6, r6, #4096	; 0x1000
 203a00e:	d3c7      	bcc.n	2039fa0 <uapi_flash_partition_refresh_proc55+0xc0>
 203a010:	9b05      	ldr	r3, [sp, #20]
 203a012:	4659      	mov	r1, fp
 203a014:	eb0b 0383 	add.w	r3, fp, r3, lsl #2
 203a018:	78da      	ldrb	r2, [r3, #3]
 203a01a:	2006      	movs	r0, #6
 203a01c:	f36f 1245 	bfc	r2, #5, #1
 203a020:	70da      	strb	r2, [r3, #3]
 203a022:	464b      	mov	r3, r9
 203a024:	2238      	movs	r2, #56	; 0x38
 203a026:	f7ff fe6f 	bl	2039d08 <uapi_common_nv_write>
 203a02a:	4604      	mov	r4, r0
 203a02c:	b980      	cbnz	r0, 203a050 <uapi_flash_partition_refresh_proc55+0x170>
 203a02e:	f8db 4004 	ldr.w	r4, [fp, #4]
 203a032:	9b04      	ldr	r3, [sp, #16]
 203a034:	3301      	adds	r3, #1
 203a036:	461a      	mov	r2, r3
 203a038:	9304      	str	r3, [sp, #16]
 203a03a:	b2d2      	uxtb	r2, r2
 203a03c:	f3c4 3304 	ubfx	r3, r4, #12, #5
 203a040:	4293      	cmp	r3, r2
 203a042:	f63f af5f 	bhi.w	2039f04 <uapi_flash_partition_refresh_proc55+0x24>
 203a046:	2400      	movs	r4, #0
 203a048:	e007      	b.n	203a05a <uapi_flash_partition_refresh_proc55+0x17a>
 203a04a:	4288      	cmp	r0, r1
 203a04c:	d18b      	bne.n	2039f66 <uapi_flash_partition_refresh_proc55+0x86>
 203a04e:	e7f0      	b.n	203a032 <uapi_flash_partition_refresh_proc55+0x152>
 203a050:	4652      	mov	r2, sl
 203a052:	4658      	mov	r0, fp
 203a054:	9906      	ldr	r1, [sp, #24]
 203a056:	f7ff fed5 	bl	2039e04 <uapi_flash_partition_refresh_free_memery>
 203a05a:	4620      	mov	r0, r4
 203a05c:	b009      	add	sp, #36	; 0x24
 203a05e:	e8bd 8ff0 	ldmia.w	sp!, {r4, r5, r6, r7, r8, r9, sl, fp, pc}
 203a062:	2a02      	cmp	r2, #2
 203a064:	d194      	bne.n	2039f90 <uapi_flash_partition_refresh_proc55+0xb0>
 203a066:	4a05      	ldr	r2, [pc, #20]	; (203a07c <uapi_flash_partition_refresh_proc55+0x19c>)
 203a068:	426d      	negs	r5, r5
 203a06a:	f5a0 5380 	sub.w	r3, r0, #4096	; 0x1000
 203a06e:	f5a1 5880 	sub.w	r8, r1, #4096	; 0x1000
 203a072:	9203      	str	r2, [sp, #12]
 203a074:	e78f      	b.n	2039f96 <uapi_flash_partition_refresh_proc55+0xb6>
 203a076:	bf00      	nop
 203a078:	0203ba60 	andeq	fp, r3, #96, 20	; 0x60000
 203a07c:	fffff000 			; <UNDEFINED> instruction: 0xfffff000

0203a080 <flash_partition_reset>:
 203a080:	b510      	push	{r4, lr}
 203a082:	f7ff ff29 	bl	2039ed8 <uapi_get_partition_table>
 203a086:	e8bd 4010 	ldmia.w	sp!, {r4, lr}
 203a08a:	4601      	mov	r1, r0
 203a08c:	2301      	movs	r3, #1
 203a08e:	223c      	movs	r2, #60	; 0x3c
 203a090:	2004      	movs	r0, #4
 203a092:	f7ff be37 	b.w	2039d04 <uapi_common_nv_read>
 203a096:	bf00      	nop

0203a098 <uapi_flash_after_move>:
 203a098:	b510      	push	{r4, lr}
 203a09a:	2301      	movs	r3, #1
 203a09c:	4604      	mov	r4, r0
 203a09e:	223c      	movs	r2, #60	; 0x3c
 203a0a0:	2004      	movs	r0, #4
 203a0a2:	f7ff fe31 	bl	2039d08 <uapi_common_nv_write>
 203a0a6:	b100      	cbz	r0, 203a0aa <uapi_flash_after_move+0x12>
 203a0a8:	bd10      	pop	{r4, pc}
 203a0aa:	f894 c007 	ldrb.w	ip, [r4, #7]
 203a0ae:	2301      	movs	r3, #1
 203a0b0:	f360 1cc7 	bfi	ip, r0, #7, #1
 203a0b4:	2238      	movs	r2, #56	; 0x38
 203a0b6:	4621      	mov	r1, r4
 203a0b8:	2006      	movs	r0, #6
 203a0ba:	f884 c007 	strb.w	ip, [r4, #7]
 203a0be:	f7ff fe23 	bl	2039d08 <uapi_common_nv_write>
 203a0c2:	2800      	cmp	r0, #0
 203a0c4:	d1f0      	bne.n	203a0a8 <uapi_flash_after_move+0x10>
 203a0c6:	e8bd 4010 	ldmia.w	sp!, {r4, lr}
 203a0ca:	f7ff bfd9 	b.w	203a080 <flash_partition_reset>
 203a0ce:	bf00      	nop

0203a0d0 <uapi_flash_partition_check_ver>:
 203a0d0:	b108      	cbz	r0, 203a0d6 <uapi_flash_partition_check_ver+0x6>
 203a0d2:	f7ff be71 	b.w	2039db8 <flash_partition_check_ver>
 203a0d6:	2002      	movs	r0, #2
 203a0d8:	4770      	bx	lr
 203a0da:	bf00      	nop

0203a0dc <uapi_flash_partition_refresh>:
 203a0dc:	2300      	movs	r3, #0
 203a0de:	b510      	push	{r4, lr}
 203a0e0:	b084      	sub	sp, #16
 203a0e2:	aa03      	add	r2, sp, #12
 203a0e4:	a902      	add	r1, sp, #8
 203a0e6:	a801      	add	r0, sp, #4
 203a0e8:	e9cd 3301 	strd	r3, r3, [sp, #4]
 203a0ec:	9303      	str	r3, [sp, #12]
 203a0ee:	f7ff fed3 	bl	2039e98 <uapi_flash_partition_refresh_malloc.constprop.0>
 203a0f2:	2801      	cmp	r0, #1
 203a0f4:	d004      	beq.n	203a100 <uapi_flash_partition_refresh+0x24>
 203a0f6:	f241 34ef 	movw	r4, #5103	; 0x13ef
 203a0fa:	4620      	mov	r0, r4
 203a0fc:	b004      	add	sp, #16
 203a0fe:	bd10      	pop	{r4, pc}
 203a100:	f7ff feea 	bl	2039ed8 <uapi_get_partition_table>
 203a104:	f10d 0303 	add.w	r3, sp, #3
 203a108:	4602      	mov	r2, r0
 203a10a:	e9dd 0101 	ldrd	r0, r1, [sp, #4]
 203a10e:	f7ff fe87 	bl	2039e20 <uapi_flash_self_check>
 203a112:	4604      	mov	r4, r0
 203a114:	9801      	ldr	r0, [sp, #4]
 203a116:	b91c      	cbnz	r4, 203a120 <uapi_flash_partition_refresh+0x44>
 203a118:	f990 3007 	ldrsb.w	r3, [r0, #7]
 203a11c:	2b00      	cmp	r3, #0
 203a11e:	db06      	blt.n	203a12e <uapi_flash_partition_refresh+0x52>
 203a120:	e9dd 1202 	ldrd	r1, r2, [sp, #8]
 203a124:	f7ff fe6e 	bl	2039e04 <uapi_flash_partition_refresh_free_memery>
 203a128:	4620      	mov	r0, r4
 203a12a:	b004      	add	sp, #16
 203a12c:	bd10      	pop	{r4, pc}
 203a12e:	f89d 3003 	ldrb.w	r3, [sp, #3]
 203a132:	e9dd 1202 	ldrd	r1, r2, [sp, #8]
 203a136:	f7ff fed3 	bl	2039ee0 <uapi_flash_partition_refresh_proc55>
 203a13a:	4604      	mov	r4, r0
 203a13c:	b108      	cbz	r0, 203a142 <uapi_flash_partition_refresh+0x66>
 203a13e:	9801      	ldr	r0, [sp, #4]
 203a140:	e7ee      	b.n	203a120 <uapi_flash_partition_refresh+0x44>
 203a142:	e9dd 0101 	ldrd	r0, r1, [sp, #4]
 203a146:	f7ff ffa7 	bl	203a098 <uapi_flash_after_move>
 203a14a:	4604      	mov	r4, r0
 203a14c:	e7f7      	b.n	203a13e <uapi_flash_partition_refresh+0x62>
 203a14e:	bf00      	nop

0203a150 <uapi_flash_partition_init>:
 203a150:	b508      	push	{r3, lr}
 203a152:	f44f 4080 	mov.w	r0, #16384	; 0x4000
 203a156:	f7ff fdc5 	bl	2039ce4 <uapi_factory_nv_init>
 203a15a:	f7ff febd 	bl	2039ed8 <uapi_get_partition_table>
 203a15e:	223c      	movs	r2, #60	; 0x3c
 203a160:	4601      	mov	r1, r0
 203a162:	2004      	movs	r0, #4
 203a164:	f7ff fdc2 	bl	2039cec <uapi_factory_nv_read>
 203a168:	b100      	cbz	r0, 203a16c <uapi_flash_partition_init+0x1c>
 203a16a:	bd08      	pop	{r3, pc}
 203a16c:	e8bd 4008 	ldmia.w	sp!, {r3, lr}
 203a170:	f7ff bfb4 	b.w	203a0dc <uapi_flash_partition_refresh>

0203a174 <uapi_is_secure_start>:
 203a174:	2300      	movs	r3, #0
 203a176:	b510      	push	{r4, lr}
 203a178:	b082      	sub	sp, #8
 203a17a:	2010      	movs	r0, #16
 203a17c:	f10d 0107 	add.w	r1, sp, #7
 203a180:	f88d 3007 	strb.w	r3, [sp, #7]
 203a184:	f001 fdf8 	bl	203bd78 <__uapi_efuse_read_veneer>
 203a188:	b958      	cbnz	r0, 203a1a2 <uapi_is_secure_start+0x2e>
 203a18a:	f89d 4007 	ldrb.w	r4, [sp, #7]
 203a18e:	f014 0401 	ands.w	r4, r4, #1
 203a192:	bf14      	ite	ne
 203a194:	4805      	ldrne	r0, [pc, #20]	; (203a1ac <uapi_is_secure_start+0x38>)
 203a196:	4806      	ldreq	r0, [pc, #24]	; (203a1b0 <uapi_is_secure_start+0x3c>)
 203a198:	f001 fdb2 	bl	203bd00 <__boot_msg0_veneer>
 203a19c:	4620      	mov	r0, r4
 203a19e:	b002      	add	sp, #8
 203a1a0:	bd10      	pop	{r4, pc}
 203a1a2:	2401      	movs	r4, #1
 203a1a4:	4620      	mov	r0, r4
 203a1a6:	b002      	add	sp, #8
 203a1a8:	bd10      	pop	{r4, pc}
 203a1aa:	bf00      	nop
 203a1ac:	0203ba68 	andeq	fp, r3, #104, 20	; 0x68000
 203a1b0:	0203ba74 	andeq	fp, r3, #116, 20	; 0x74000

0203a1b4 <uapi_secure_save_key_pos>:
 203a1b4:	4b03      	ldr	r3, [pc, #12]	; (203a1c4 <uapi_secure_save_key_pos+0x10>)
 203a1b6:	4804      	ldr	r0, [pc, #16]	; (203a1c8 <uapi_secure_save_key_pos+0x14>)
 203a1b8:	4904      	ldr	r1, [pc, #16]	; (203a1cc <uapi_secure_save_key_pos+0x18>)
 203a1ba:	4a05      	ldr	r2, [pc, #20]	; (203a1d0 <uapi_secure_save_key_pos+0x1c>)
 203a1bc:	4403      	add	r3, r0
 203a1be:	1a5b      	subs	r3, r3, r1
 203a1c0:	6493      	str	r3, [r2, #72]	; 0x48
 203a1c2:	4770      	bx	lr
 203a1c4:	01003b30 	tsteq	r0, r0, lsr fp
 203a1c8:	0103be08 	tsteq	r3, r8, lsl #28
 203a1cc:	0203be08 	andeq	fp, r3, #8, 28	; 0x80
 203a1d0:	40030000 	andmi	r0, r3, r0

0203a1d4 <boot_start_check_tbl_secure_info>:
 203a1d4:	b5f0      	push	{r4, r5, r6, r7, lr}
 203a1d6:	4d31      	ldr	r5, [pc, #196]	; (203a29c <boot_start_check_tbl_secure_info+0xc8>)
 203a1d8:	f5ad 7d4d 	sub.w	sp, sp, #820	; 0x334
 203a1dc:	69ec      	ldr	r4, [r5, #28]
 203a1de:	2c00      	cmp	r4, #0
 203a1e0:	d057      	beq.n	203a292 <boot_start_check_tbl_secure_info+0xbe>
 203a1e2:	f44f 7241 	mov.w	r2, #772	; 0x304
 203a1e6:	2100      	movs	r1, #0
 203a1e8:	a80b      	add	r0, sp, #44	; 0x2c
 203a1ea:	f001 fde9 	bl	203bdc0 <__memset_veneer>
 203a1ee:	2300      	movs	r3, #0
 203a1f0:	e9cd 3303 	strd	r3, r3, [sp, #12]
 203a1f4:	f88d 3008 	strb.w	r3, [sp, #8]
 203a1f8:	f7ff ffbc 	bl	203a174 <uapi_is_secure_start>
 203a1fc:	b158      	cbz	r0, 203a216 <boot_start_check_tbl_secure_info+0x42>
 203a1fe:	69a3      	ldr	r3, [r4, #24]
 203a200:	b163      	cbz	r3, 203a21c <boot_start_check_tbl_secure_info+0x48>
 203a202:	69e2      	ldr	r2, [r4, #28]
 203a204:	b152      	cbz	r2, 203a21c <boot_start_check_tbl_secure_info+0x48>
 203a206:	68e8      	ldr	r0, [r5, #12]
 203a208:	f44f 7141 	mov.w	r1, #772	; 0x304
 203a20c:	4418      	add	r0, r3
 203a20e:	aa0b      	add	r2, sp, #44	; 0x2c
 203a210:	f7ff f8d0 	bl	20393b4 <uapi_flash_read>
 203a214:	b138      	cbz	r0, 203a226 <boot_start_check_tbl_secure_info+0x52>
 203a216:	f50d 7d4d 	add.w	sp, sp, #820	; 0x334
 203a21a:	bdf0      	pop	{r4, r5, r6, r7, pc}
 203a21c:	f241 30c2 	movw	r0, #5058	; 0x13c2
 203a220:	f50d 7d4d 	add.w	sp, sp, #820	; 0x334
 203a224:	bdf0      	pop	{r4, r5, r6, r7, pc}
 203a226:	f44f 7380 	mov.w	r3, #256	; 0x100
 203a22a:	9304      	str	r3, [sp, #16]
 203a22c:	f89d 302e 	ldrb.w	r3, [sp, #46]	; 0x2e
 203a230:	af8c      	add	r7, sp, #560	; 0x230
 203a232:	f3c3 0305 	ubfx	r3, r3, #0, #6
 203a236:	f88d 301c 	strb.w	r3, [sp, #28]
 203a23a:	4b19      	ldr	r3, [pc, #100]	; (203a2a0 <boot_start_check_tbl_secure_info+0xcc>)
 203a23c:	ae05      	add	r6, sp, #20
 203a23e:	f88d 0008 	strb.w	r0, [sp, #8]
 203a242:	9305      	str	r3, [sp, #20]
 203a244:	9703      	str	r7, [sp, #12]
 203a246:	2201      	movs	r2, #1
 203a248:	af0c      	add	r7, sp, #48	; 0x30
 203a24a:	9600      	str	r6, [sp, #0]
 203a24c:	ab02      	add	r3, sp, #8
 203a24e:	a904      	add	r1, sp, #16
 203a250:	a803      	add	r0, sp, #12
 203a252:	9706      	str	r7, [sp, #24]
 203a254:	f001 f900 	bl	203b458 <uapi_rsa_verify_flash_content>
 203a258:	2800      	cmp	r0, #0
 203a25a:	d1dc      	bne.n	203a216 <boot_start_check_tbl_secure_info+0x42>
 203a25c:	2201      	movs	r2, #1
 203a25e:	6a20      	ldr	r0, [r4, #32]
 203a260:	68e9      	ldr	r1, [r5, #12]
 203a262:	f89d 302e 	ldrb.w	r3, [sp, #46]	; 0x2e
 203a266:	4401      	add	r1, r0
 203a268:	9103      	str	r1, [sp, #12]
 203a26a:	6a61      	ldr	r1, [r4, #36]	; 0x24
 203a26c:	ad8c      	add	r5, sp, #560	; 0x230
 203a26e:	f3c3 0305 	ubfx	r3, r3, #0, #6
 203a272:	ac08      	add	r4, sp, #32
 203a274:	9104      	str	r1, [sp, #16]
 203a276:	9508      	str	r5, [sp, #32]
 203a278:	f88d 3028 	strb.w	r3, [sp, #40]	; 0x28
 203a27c:	ad4c      	add	r5, sp, #304	; 0x130
 203a27e:	a904      	add	r1, sp, #16
 203a280:	a803      	add	r0, sp, #12
 203a282:	9400      	str	r4, [sp, #0]
 203a284:	ab02      	add	r3, sp, #8
 203a286:	f88d 2008 	strb.w	r2, [sp, #8]
 203a28a:	9509      	str	r5, [sp, #36]	; 0x24
 203a28c:	f001 f8e4 	bl	203b458 <uapi_rsa_verify_flash_content>
 203a290:	e7c1      	b.n	203a216 <boot_start_check_tbl_secure_info+0x42>
 203a292:	f04f 30ff 	mov.w	r0, #4294967295	; 0xffffffff
 203a296:	f50d 7d4d 	add.w	sp, sp, #820	; 0x334
 203a29a:	bdf0      	pop	{r4, r5, r6, r7, pc}
 203a29c:	0203c3e4 	andeq	ip, r3, #228, 6	; 0x90000003
 203a2a0:	0203be08 	andeq	fp, r3, #8, 28	; 0x80

0203a2a4 <boot_upg_check_secure_head>:
 203a2a4:	b5f0      	push	{r4, r5, r6, r7, lr}
 203a2a6:	4e4a      	ldr	r6, [pc, #296]	; (203a3d0 <boot_upg_check_secure_head+0x12c>)
 203a2a8:	f5ad 7d4f 	sub.w	sp, sp, #828	; 0x33c
 203a2ac:	f44f 7241 	mov.w	r2, #772	; 0x304
 203a2b0:	2100      	movs	r1, #0
 203a2b2:	a80d      	add	r0, sp, #52	; 0x34
 203a2b4:	6a35      	ldr	r5, [r6, #32]
 203a2b6:	f001 fd83 	bl	203bdc0 <__memset_veneer>
 203a2ba:	2300      	movs	r3, #0
 203a2bc:	e9cd 3303 	strd	r3, r3, [sp, #12]
 203a2c0:	e9cd 3305 	strd	r3, r3, [sp, #20]
 203a2c4:	f8ad 3008 	strh.w	r3, [sp, #8]
 203a2c8:	f7ff ff54 	bl	203a174 <uapi_is_secure_start>
 203a2cc:	2800      	cmp	r0, #0
 203a2ce:	d07a      	beq.n	203a3c6 <boot_upg_check_secure_head+0x122>
 203a2d0:	6cab      	ldr	r3, [r5, #72]	; 0x48
 203a2d2:	2b00      	cmp	r3, #0
 203a2d4:	d071      	beq.n	203a3ba <boot_upg_check_secure_head+0x116>
 203a2d6:	6cea      	ldr	r2, [r5, #76]	; 0x4c
 203a2d8:	2a00      	cmp	r2, #0
 203a2da:	d06e      	beq.n	203a3ba <boot_upg_check_secure_head+0x116>
 203a2dc:	69b0      	ldr	r0, [r6, #24]
 203a2de:	f44f 7141 	mov.w	r1, #772	; 0x304
 203a2e2:	4418      	add	r0, r3
 203a2e4:	aa0d      	add	r2, sp, #52	; 0x34
 203a2e6:	f7ff f865 	bl	20393b4 <uapi_flash_read>
 203a2ea:	4604      	mov	r4, r0
 203a2ec:	2800      	cmp	r0, #0
 203a2ee:	d166      	bne.n	203a3be <boot_upg_check_secure_head+0x11a>
 203a2f0:	f89d 3137 	ldrb.w	r3, [sp, #311]	; 0x137
 203a2f4:	f89d 2039 	ldrb.w	r2, [sp, #57]	; 0x39
 203a2f8:	f89d 1038 	ldrb.w	r1, [sp, #56]	; 0x38
 203a2fc:	4835      	ldr	r0, [pc, #212]	; (203a3d4 <boot_upg_check_secure_head+0x130>)
 203a2fe:	9300      	str	r3, [sp, #0]
 203a300:	f89d 3136 	ldrb.w	r3, [sp, #310]	; 0x136
 203a304:	f001 fd68 	bl	203bdd8 <__boot_msg4_veneer>
 203a308:	f89d 3237 	ldrb.w	r3, [sp, #567]	; 0x237
 203a30c:	f89d 2139 	ldrb.w	r2, [sp, #313]	; 0x139
 203a310:	f89d 1138 	ldrb.w	r1, [sp, #312]	; 0x138
 203a314:	4830      	ldr	r0, [pc, #192]	; (203a3d8 <boot_upg_check_secure_head+0x134>)
 203a316:	9300      	str	r3, [sp, #0]
 203a318:	f89d 3236 	ldrb.w	r3, [sp, #566]	; 0x236
 203a31c:	f001 fd5c 	bl	203bdd8 <__boot_msg4_veneer>
 203a320:	f89d 3337 	ldrb.w	r3, [sp, #823]	; 0x337
 203a324:	f89d 2239 	ldrb.w	r2, [sp, #569]	; 0x239
 203a328:	f89d 1238 	ldrb.w	r1, [sp, #568]	; 0x238
 203a32c:	482b      	ldr	r0, [pc, #172]	; (203a3dc <boot_upg_check_secure_head+0x138>)
 203a32e:	9300      	str	r3, [sp, #0]
 203a330:	f89d 3336 	ldrb.w	r3, [sp, #822]	; 0x336
 203a334:	f001 fd50 	bl	203bdd8 <__boot_msg4_veneer>
 203a338:	f44f 7380 	mov.w	r3, #256	; 0x100
 203a33c:	9305      	str	r3, [sp, #20]
 203a33e:	f89d 3036 	ldrb.w	r3, [sp, #54]	; 0x36
 203a342:	f88d 4008 	strb.w	r4, [sp, #8]
 203a346:	f3c3 0305 	ubfx	r3, r3, #0, #6
 203a34a:	f88d 3024 	strb.w	r3, [sp, #36]	; 0x24
 203a34e:	4b24      	ldr	r3, [pc, #144]	; (203a3e0 <boot_upg_check_secure_head+0x13c>)
 203a350:	ac07      	add	r4, sp, #28
 203a352:	af8e      	add	r7, sp, #568	; 0x238
 203a354:	9400      	str	r4, [sp, #0]
 203a356:	9307      	str	r3, [sp, #28]
 203a358:	9703      	str	r7, [sp, #12]
 203a35a:	2201      	movs	r2, #1
 203a35c:	ab02      	add	r3, sp, #8
 203a35e:	a905      	add	r1, sp, #20
 203a360:	a803      	add	r0, sp, #12
 203a362:	af0e      	add	r7, sp, #56	; 0x38
 203a364:	9708      	str	r7, [sp, #32]
 203a366:	f001 f877 	bl	203b458 <uapi_rsa_verify_flash_content>
 203a36a:	4604      	mov	r4, r0
 203a36c:	bb38      	cbnz	r0, 203a3be <boot_upg_check_secure_head+0x11a>
 203a36e:	e9d5 1312 	ldrd	r1, r3, [r5, #72]	; 0x48
 203a372:	2401      	movs	r4, #1
 203a374:	69b2      	ldr	r2, [r6, #24]
 203a376:	6a68      	ldr	r0, [r5, #36]	; 0x24
 203a378:	440b      	add	r3, r1
 203a37a:	1ac0      	subs	r0, r0, r3
 203a37c:	f89d 6036 	ldrb.w	r6, [sp, #54]	; 0x36
 203a380:	4413      	add	r3, r2
 203a382:	3224      	adds	r2, #36	; 0x24
 203a384:	3924      	subs	r1, #36	; 0x24
 203a386:	9203      	str	r2, [sp, #12]
 203a388:	f88d 4008 	strb.w	r4, [sp, #8]
 203a38c:	f88d 4009 	strb.w	r4, [sp, #9]
 203a390:	aa8e      	add	r2, sp, #568	; 0x238
 203a392:	ac0a      	add	r4, sp, #40	; 0x28
 203a394:	9105      	str	r1, [sp, #20]
 203a396:	9006      	str	r0, [sp, #24]
 203a398:	9304      	str	r3, [sp, #16]
 203a39a:	920a      	str	r2, [sp, #40]	; 0x28
 203a39c:	9400      	str	r4, [sp, #0]
 203a39e:	2202      	movs	r2, #2
 203a3a0:	f3c6 0605 	ubfx	r6, r6, #0, #6
 203a3a4:	a905      	add	r1, sp, #20
 203a3a6:	a803      	add	r0, sp, #12
 203a3a8:	ab02      	add	r3, sp, #8
 203a3aa:	ad4e      	add	r5, sp, #312	; 0x138
 203a3ac:	f88d 6030 	strb.w	r6, [sp, #48]	; 0x30
 203a3b0:	950b      	str	r5, [sp, #44]	; 0x2c
 203a3b2:	f001 f851 	bl	203b458 <uapi_rsa_verify_flash_content>
 203a3b6:	4604      	mov	r4, r0
 203a3b8:	e001      	b.n	203a3be <boot_upg_check_secure_head+0x11a>
 203a3ba:	f241 34c1 	movw	r4, #5057	; 0x13c1
 203a3be:	4620      	mov	r0, r4
 203a3c0:	f50d 7d4f 	add.w	sp, sp, #828	; 0x33c
 203a3c4:	bdf0      	pop	{r4, r5, r6, r7, pc}
 203a3c6:	4604      	mov	r4, r0
 203a3c8:	4620      	mov	r0, r4
 203a3ca:	f50d 7d4f 	add.w	sp, sp, #828	; 0x33c
 203a3ce:	bdf0      	pop	{r4, r5, r6, r7, pc}
 203a3d0:	0203c3e4 	andeq	ip, r3, #228, 6	; 0x90000003
 203a3d4:	0203ba84 	andeq	fp, r3, #132, 20	; 0x84000
 203a3d8:	0203ba90 	andeq	fp, r3, #144, 20	; 0x90000
 203a3dc:	0203ba9c 	andeq	fp, r3, #156, 20	; 0x9c000
 203a3e0:	0203be08 	andeq	fp, r3, #8, 28	; 0x80

0203a3e4 <boot_upg_check_secure_boot>:
 203a3e4:	b508      	push	{r3, lr}
 203a3e6:	f7ff fec5 	bl	203a174 <uapi_is_secure_start>
 203a3ea:	b168      	cbz	r0, 203a408 <boot_upg_check_secure_boot+0x24>
 203a3ec:	4b07      	ldr	r3, [pc, #28]	; (203a40c <boot_upg_check_secure_boot+0x28>)
 203a3ee:	6a5a      	ldr	r2, [r3, #36]	; 0x24
 203a3f0:	b142      	cbz	r2, 203a404 <boot_upg_check_secure_boot+0x20>
 203a3f2:	699b      	ldr	r3, [r3, #24]
 203a3f4:	6850      	ldr	r0, [r2, #4]
 203a3f6:	f103 7380 	add.w	r3, r3, #16777216	; 0x1000000
 203a3fa:	4418      	add	r0, r3
 203a3fc:	e8bd 4008 	ldmia.w	sp!, {r3, lr}
 203a400:	f000 beae 	b.w	203b160 <flash_boot_security_boot_verify>
 203a404:	f04f 30ff 	mov.w	r0, #4294967295	; 0xffffffff
 203a408:	bd08      	pop	{r3, pc}
 203a40a:	bf00      	nop
 203a40c:	0203c3e4 	andeq	ip, r3, #228, 6	; 0x90000003

0203a410 <boot_upg_is_upgrade_boot_reason>:
 203a410:	f1a0 0006 	sub.w	r0, r0, #6
 203a414:	fab0 f080 	clz	r0, r0
 203a418:	0940      	lsrs	r0, r0, #5
 203a41a:	4770      	bx	lr

0203a41c <boot_upg_process_phase1.constprop.0>:
 203a41c:	b538      	push	{r3, r4, r5, lr}
 203a41e:	4b0f      	ldr	r3, [pc, #60]	; (203a45c <boot_upg_process_phase1.constprop.0+0x40>)
 203a420:	4604      	mov	r4, r0
 203a422:	6a1d      	ldr	r5, [r3, #32]
 203a424:	f883 002a 	strb.w	r0, [r3, #42]	; 0x2a
 203a428:	f000 fbf6 	bl	203ac18 <boot_upg_check_upg_phase2>
 203a42c:	b938      	cbnz	r0, 203a43e <boot_upg_process_phase1.constprop.0+0x22>
 203a42e:	f895 3033 	ldrb.w	r3, [r5, #51]	; 0x33
 203a432:	2b01      	cmp	r3, #1
 203a434:	d00d      	beq.n	203a452 <boot_upg_process_phase1.constprop.0+0x36>
 203a436:	2b03      	cmp	r3, #3
 203a438:	d002      	beq.n	203a440 <boot_upg_process_phase1.constprop.0+0x24>
 203a43a:	f241 309a 	movw	r0, #5018	; 0x139a
 203a43e:	bd38      	pop	{r3, r4, r5, pc}
 203a440:	4620      	mov	r0, r4
 203a442:	f7ff ffe5 	bl	203a410 <boot_upg_is_upgrade_boot_reason>
 203a446:	2801      	cmp	r0, #1
 203a448:	d1f7      	bne.n	203a43a <boot_upg_process_phase1.constprop.0+0x1e>
 203a44a:	e8bd 4038 	ldmia.w	sp!, {r3, r4, r5, lr}
 203a44e:	f000 bc07 	b.w	203ac60 <boot_upg_process_boot>
 203a452:	e8bd 4038 	ldmia.w	sp!, {r3, r4, r5, lr}
 203a456:	f000 bc9d 	b.w	203ad94 <boot_upg_kernel_process>
 203a45a:	bf00      	nop
 203a45c:	0203c3e4 	andeq	ip, r3, #228, 6	; 0x90000003

0203a460 <boot_upg_process>:
 203a460:	b570      	push	{r4, r5, r6, lr}
 203a462:	4604      	mov	r4, r0
 203a464:	4d13      	ldr	r5, [pc, #76]	; (203a4b4 <boot_upg_process+0x54>)
 203a466:	460a      	mov	r2, r1
 203a468:	4813      	ldr	r0, [pc, #76]	; (203a4b8 <boot_upg_process+0x58>)
 203a46a:	4621      	mov	r1, r4
 203a46c:	69ee      	ldr	r6, [r5, #28]
 203a46e:	f001 fc43 	bl	203bcf8 <__boot_msg2_veneer>
 203a472:	4620      	mov	r0, r4
 203a474:	f7ff ffd2 	bl	203a41c <boot_upg_process_phase1.constprop.0>
 203a478:	4604      	mov	r4, r0
 203a47a:	4810      	ldr	r0, [pc, #64]	; (203a4bc <boot_upg_process+0x5c>)
 203a47c:	4621      	mov	r1, r4
 203a47e:	f001 fcb7 	bl	203bdf0 <__boot_msg1_veneer>
 203a482:	b184      	cbz	r4, 203a4a6 <boot_upg_process+0x46>
 203a484:	f895 3028 	ldrb.w	r3, [r5, #40]	; 0x28
 203a488:	06db      	lsls	r3, r3, #27
 203a48a:	d405      	bmi.n	203a498 <boot_upg_process+0x38>
 203a48c:	4d0c      	ldr	r5, [pc, #48]	; (203a4c0 <boot_upg_process+0x60>)
 203a48e:	4621      	mov	r1, r4
 203a490:	4628      	mov	r0, r5
 203a492:	f001 fcad 	bl	203bdf0 <__boot_msg1_veneer>
 203a496:	e7fa      	b.n	203a48e <boot_upg_process+0x2e>
 203a498:	68e8      	ldr	r0, [r5, #12]
 203a49a:	6873      	ldr	r3, [r6, #4]
 203a49c:	4418      	add	r0, r3
 203a49e:	f000 fea9 	bl	203b1f4 <boot_firmware_new>
 203a4a2:	2000      	movs	r0, #0
 203a4a4:	bd70      	pop	{r4, r5, r6, pc}
 203a4a6:	f000 fb37 	bl	203ab18 <boot_upg_clear_upg_magic_all>
 203a4aa:	f000 fec5 	bl	203b238 <boot_reset>
 203a4ae:	2000      	movs	r0, #0
 203a4b0:	bd70      	pop	{r4, r5, r6, pc}
 203a4b2:	bf00      	nop
 203a4b4:	0203c3e4 	andeq	ip, r3, #228, 6	; 0x90000003
 203a4b8:	0203baac 	andeq	fp, r3, #172, 20	; 0xac000
 203a4bc:	0203bac8 	andeq	fp, r3, #200, 20	; 0xc8000
 203a4c0:	0203bae8 	andeq	fp, r3, #232, 20	; 0xe8000

0203a4c4 <boot_start_pre_check>:
 203a4c4:	b510      	push	{r4, lr}
 203a4c6:	f000 f8a5 	bl	203a614 <boot_start_check_read_tbl_info>
 203a4ca:	b920      	cbnz	r0, 203a4d6 <boot_start_pre_check+0x12>
 203a4cc:	f000 f8f0 	bl	203a6b0 <boot_start_check_kernel>
 203a4d0:	4604      	mov	r4, r0
 203a4d2:	b970      	cbnz	r0, 203a4f2 <boot_start_pre_check+0x2e>
 203a4d4:	bd10      	pop	{r4, pc}
 203a4d6:	4604      	mov	r4, r0
 203a4d8:	f000 fb46 	bl	203ab68 <boot_upg_check_upg_phase0>
 203a4dc:	f000 fb58 	bl	203ab90 <boot_upg_check_upg_phase1>
 203a4e0:	4621      	mov	r1, r4
 203a4e2:	2001      	movs	r0, #1
 203a4e4:	f7ff ffbc 	bl	203a460 <boot_upg_process>
 203a4e8:	f000 f8e2 	bl	203a6b0 <boot_start_check_kernel>
 203a4ec:	4604      	mov	r4, r0
 203a4ee:	2800      	cmp	r0, #0
 203a4f0:	d0f0      	beq.n	203a4d4 <boot_start_pre_check+0x10>
 203a4f2:	f000 fb39 	bl	203ab68 <boot_upg_check_upg_phase0>
 203a4f6:	f000 fb4b 	bl	203ab90 <boot_upg_check_upg_phase1>
 203a4fa:	4621      	mov	r1, r4
 203a4fc:	e8bd 4010 	ldmia.w	sp!, {r4, lr}
 203a500:	2002      	movs	r0, #2
 203a502:	f7ff bfad 	b.w	203a460 <boot_upg_process>
 203a506:	bf00      	nop

0203a508 <boot_start_main>:
 203a508:	b530      	push	{r4, r5, lr}
 203a50a:	493b      	ldr	r1, [pc, #236]	; (203a5f8 <boot_start_main+0xf0>)
 203a50c:	b083      	sub	sp, #12
 203a50e:	483b      	ldr	r0, [pc, #236]	; (203a5fc <boot_start_main+0xf4>)
 203a510:	f001 fc6e 	bl	203bdf0 <__boot_msg1_veneer>
 203a514:	f7ff fe4e 	bl	203a1b4 <uapi_secure_save_key_pos>
 203a518:	f000 f920 	bl	203a75c <boot_upg_init_phase1>
 203a51c:	b130      	cbz	r0, 203a52c <boot_start_main+0x24>
 203a51e:	4604      	mov	r4, r0
 203a520:	4d37      	ldr	r5, [pc, #220]	; (203a600 <boot_start_main+0xf8>)
 203a522:	4621      	mov	r1, r4
 203a524:	4628      	mov	r0, r5
 203a526:	f001 fc63 	bl	203bdf0 <__boot_msg1_veneer>
 203a52a:	e7fa      	b.n	203a522 <boot_start_main+0x1a>
 203a52c:	4c35      	ldr	r4, [pc, #212]	; (203a604 <boot_start_main+0xfc>)
 203a52e:	f000 f979 	bl	203a824 <boot_upg_init_phash2>
 203a532:	f7ff ffc7 	bl	203a4c4 <boot_start_pre_check>
 203a536:	f894 3028 	ldrb.w	r3, [r4, #40]	; 0x28
 203a53a:	f043 0310 	orr.w	r3, r3, #16
 203a53e:	f884 3028 	strb.w	r3, [r4, #40]	; 0x28
 203a542:	f000 f8db 	bl	203a6fc <boot_start_check_nvfile>
 203a546:	4605      	mov	r5, r0
 203a548:	bb18      	cbnz	r0, 203a592 <boot_start_main+0x8a>
 203a54a:	f000 fb0d 	bl	203ab68 <boot_upg_check_upg_phase0>
 203a54e:	f894 3028 	ldrb.w	r3, [r4, #40]	; 0x28
 203a552:	f894 1029 	ldrb.w	r1, [r4, #41]	; 0x29
 203a556:	f3c3 1380 	ubfx	r3, r3, #6, #1
 203a55a:	9300      	str	r3, [sp, #0]
 203a55c:	f001 0201 	and.w	r2, r1, #1
 203a560:	f3c1 0382 	ubfx	r3, r1, #2, #3
 203a564:	4828      	ldr	r0, [pc, #160]	; (203a608 <boot_start_main+0x100>)
 203a566:	f3c1 0140 	ubfx	r1, r1, #1, #1
 203a56a:	f001 fc35 	bl	203bdd8 <__boot_msg4_veneer>
 203a56e:	f894 3029 	ldrb.w	r3, [r4, #41]	; 0x29
 203a572:	0799      	lsls	r1, r3, #30
 203a574:	d504      	bpl.n	203a580 <boot_start_main+0x78>
 203a576:	07da      	lsls	r2, r3, #31
 203a578:	d514      	bpl.n	203a5a4 <boot_start_main+0x9c>
 203a57a:	f013 0f1c 	tst.w	r3, #28
 203a57e:	d127      	bne.n	203a5d0 <boot_start_main+0xc8>
 203a580:	69e2      	ldr	r2, [r4, #28]
 203a582:	68e3      	ldr	r3, [r4, #12]
 203a584:	6850      	ldr	r0, [r2, #4]
 203a586:	4418      	add	r0, r3
 203a588:	f000 fe34 	bl	203b1f4 <boot_firmware_new>
 203a58c:	2000      	movs	r0, #0
 203a58e:	b003      	add	sp, #12
 203a590:	bd30      	pop	{r4, r5, pc}
 203a592:	f000 fae9 	bl	203ab68 <boot_upg_check_upg_phase0>
 203a596:	f000 fafb 	bl	203ab90 <boot_upg_check_upg_phase1>
 203a59a:	4629      	mov	r1, r5
 203a59c:	2004      	movs	r0, #4
 203a59e:	f7ff ff5f 	bl	203a460 <boot_upg_process>
 203a5a2:	e7d2      	b.n	203a54a <boot_start_main+0x42>
 203a5a4:	f000 faf4 	bl	203ab90 <boot_upg_check_upg_phase1>
 203a5a8:	4601      	mov	r1, r0
 203a5aa:	4818      	ldr	r0, [pc, #96]	; (203a60c <boot_start_main+0x104>)
 203a5ac:	f001 fc20 	bl	203bdf0 <__boot_msg1_veneer>
 203a5b0:	f894 3028 	ldrb.w	r3, [r4, #40]	; 0x28
 203a5b4:	f003 0360 	and.w	r3, r3, #96	; 0x60
 203a5b8:	2b60      	cmp	r3, #96	; 0x60
 203a5ba:	d1e1      	bne.n	203a580 <boot_start_main+0x78>
 203a5bc:	f000 fb9e 	bl	203acfc <boot_upg_is_do_upg_from_nv>
 203a5c0:	2800      	cmp	r0, #0
 203a5c2:	d0dd      	beq.n	203a580 <boot_start_main+0x78>
 203a5c4:	f894 102b 	ldrb.w	r1, [r4, #43]	; 0x2b
 203a5c8:	2006      	movs	r0, #6
 203a5ca:	f7ff ff49 	bl	203a460 <boot_upg_process>
 203a5ce:	e7d7      	b.n	203a580 <boot_start_main+0x78>
 203a5d0:	f000 fa7a 	bl	203aac8 <boot_upg_clear_upg_magic_one>
 203a5d4:	f000 fadc 	bl	203ab90 <boot_upg_check_upg_phase1>
 203a5d8:	69a2      	ldr	r2, [r4, #24]
 203a5da:	4601      	mov	r1, r0
 203a5dc:	480c      	ldr	r0, [pc, #48]	; (203a610 <boot_start_main+0x108>)
 203a5de:	f001 fb8b 	bl	203bcf8 <__boot_msg2_veneer>
 203a5e2:	f894 3028 	ldrb.w	r3, [r4, #40]	; 0x28
 203a5e6:	065b      	lsls	r3, r3, #25
 203a5e8:	d5ca      	bpl.n	203a580 <boot_start_main+0x78>
 203a5ea:	f894 102b 	ldrb.w	r1, [r4, #43]	; 0x2b
 203a5ee:	2006      	movs	r0, #6
 203a5f0:	f7ff ff36 	bl	203a460 <boot_upg_process>
 203a5f4:	e7c4      	b.n	203a580 <boot_start_main+0x78>
 203a5f6:	bf00      	nop
 203a5f8:	12121213 	andsne	r1, r2, #805306369	; 0x30000001
 203a5fc:	0203baf4 	andeq	fp, r3, #244, 20	; 0xf4000
 203a600:	0203bae8 	andeq	fp, r3, #232, 20	; 0xe8000
 203a604:	0203c3e4 	andeq	ip, r3, #228, 6	; 0x90000003
 203a608:	0203bb10 	andeq	fp, r3, #16, 22	; 0x4000
 203a60c:	0203bb1c 	andeq	fp, r3, #28, 22	; 0x7000
 203a610:	0203bb28 	andeq	fp, r3, #40, 22	; 0xa000

0203a614 <boot_start_check_read_tbl_info>:
 203a614:	2300      	movs	r3, #0
 203a616:	b5f0      	push	{r4, r5, r6, r7, lr}
 203a618:	4c24      	ldr	r4, [pc, #144]	; (203a6ac <boot_start_check_read_tbl_info+0x98>)
 203a61a:	b083      	sub	sp, #12
 203a61c:	69e5      	ldr	r5, [r4, #28]
 203a61e:	212c      	movs	r1, #44	; 0x2c
 203a620:	462a      	mov	r2, r5
 203a622:	68e0      	ldr	r0, [r4, #12]
 203a624:	9301      	str	r3, [sp, #4]
 203a626:	f7fe fec5 	bl	20393b4 <uapi_flash_read>
 203a62a:	bb40      	cbnz	r0, 203a67e <boot_start_check_read_tbl_info+0x6a>
 203a62c:	f643 73fc 	movw	r3, #16380	; 0x3ffc
 203a630:	6869      	ldr	r1, [r5, #4]
 203a632:	3904      	subs	r1, #4
 203a634:	4299      	cmp	r1, r3
 203a636:	d827      	bhi.n	203a688 <boot_start_check_read_tbl_info+0x74>
 203a638:	68e0      	ldr	r0, [r4, #12]
 203a63a:	aa01      	add	r2, sp, #4
 203a63c:	3004      	adds	r0, #4
 203a63e:	f000 fe67 	bl	203b310 <upg_crc_block>
 203a642:	682a      	ldr	r2, [r5, #0]
 203a644:	9b01      	ldr	r3, [sp, #4]
 203a646:	4607      	mov	r7, r0
 203a648:	429a      	cmp	r2, r3
 203a64a:	d10d      	bne.n	203a668 <boot_start_check_read_tbl_info+0x54>
 203a64c:	b960      	cbnz	r0, 203a668 <boot_start_check_read_tbl_info+0x54>
 203a64e:	f7ff fdc1 	bl	203a1d4 <boot_start_check_tbl_secure_info>
 203a652:	4606      	mov	r6, r0
 203a654:	bb18      	cbnz	r0, 203a69e <boot_start_check_read_tbl_info+0x8a>
 203a656:	f894 3028 	ldrb.w	r3, [r4, #40]	; 0x28
 203a65a:	f043 0302 	orr.w	r3, r3, #2
 203a65e:	f884 3028 	strb.w	r3, [r4, #40]	; 0x28
 203a662:	4630      	mov	r0, r6
 203a664:	b003      	add	sp, #12
 203a666:	bdf0      	pop	{r4, r5, r6, r7, pc}
 203a668:	232c      	movs	r3, #44	; 0x2c
 203a66a:	f241 368d 	movw	r6, #5005	; 0x138d
 203a66e:	2200      	movs	r2, #0
 203a670:	4628      	mov	r0, r5
 203a672:	4619      	mov	r1, r3
 203a674:	f001 fb5c 	bl	203bd30 <__memset_s_veneer>
 203a678:	4630      	mov	r0, r6
 203a67a:	b003      	add	sp, #12
 203a67c:	bdf0      	pop	{r4, r5, r6, r7, pc}
 203a67e:	f241 368a 	movw	r6, #5002	; 0x138a
 203a682:	4630      	mov	r0, r6
 203a684:	b003      	add	sp, #12
 203a686:	bdf0      	pop	{r4, r5, r6, r7, pc}
 203a688:	232c      	movs	r3, #44	; 0x2c
 203a68a:	f241 368b 	movw	r6, #5003	; 0x138b
 203a68e:	4602      	mov	r2, r0
 203a690:	4619      	mov	r1, r3
 203a692:	4628      	mov	r0, r5
 203a694:	f001 fb4c 	bl	203bd30 <__memset_s_veneer>
 203a698:	4630      	mov	r0, r6
 203a69a:	b003      	add	sp, #12
 203a69c:	bdf0      	pop	{r4, r5, r6, r7, pc}
 203a69e:	232c      	movs	r3, #44	; 0x2c
 203a6a0:	463a      	mov	r2, r7
 203a6a2:	4628      	mov	r0, r5
 203a6a4:	4619      	mov	r1, r3
 203a6a6:	f001 fb43 	bl	203bd30 <__memset_s_veneer>
 203a6aa:	e7da      	b.n	203a662 <boot_start_check_read_tbl_info+0x4e>
 203a6ac:	0203c3e4 	andeq	ip, r3, #228, 6	; 0x90000003

0203a6b0 <boot_start_check_kernel>:
 203a6b0:	2300      	movs	r3, #0
 203a6b2:	b530      	push	{r4, r5, lr}
 203a6b4:	4d10      	ldr	r5, [pc, #64]	; (203a6f8 <boot_start_check_kernel+0x48>)
 203a6b6:	b083      	sub	sp, #12
 203a6b8:	69ec      	ldr	r4, [r5, #28]
 203a6ba:	9301      	str	r3, [sp, #4]
 203a6bc:	b1bc      	cbz	r4, 203a6ee <boot_start_check_kernel+0x3e>
 203a6be:	6a23      	ldr	r3, [r4, #32]
 203a6c0:	68e8      	ldr	r0, [r5, #12]
 203a6c2:	aa01      	add	r2, sp, #4
 203a6c4:	4418      	add	r0, r3
 203a6c6:	6a61      	ldr	r1, [r4, #36]	; 0x24
 203a6c8:	f000 fe22 	bl	203b310 <upg_crc_block>
 203a6cc:	6aa2      	ldr	r2, [r4, #40]	; 0x28
 203a6ce:	9b01      	ldr	r3, [sp, #4]
 203a6d0:	429a      	cmp	r2, r3
 203a6d2:	d108      	bne.n	203a6e6 <boot_start_check_kernel+0x36>
 203a6d4:	b938      	cbnz	r0, 203a6e6 <boot_start_check_kernel+0x36>
 203a6d6:	f895 3028 	ldrb.w	r3, [r5, #40]	; 0x28
 203a6da:	f043 0304 	orr.w	r3, r3, #4
 203a6de:	f885 3028 	strb.w	r3, [r5, #40]	; 0x28
 203a6e2:	b003      	add	sp, #12
 203a6e4:	bd30      	pop	{r4, r5, pc}
 203a6e6:	f241 308e 	movw	r0, #5006	; 0x138e
 203a6ea:	b003      	add	sp, #12
 203a6ec:	bd30      	pop	{r4, r5, pc}
 203a6ee:	f04f 30ff 	mov.w	r0, #4294967295	; 0xffffffff
 203a6f2:	b003      	add	sp, #12
 203a6f4:	bd30      	pop	{r4, r5, pc}
 203a6f6:	bf00      	nop
 203a6f8:	0203c3e4 	andeq	ip, r3, #228, 6	; 0x90000003

0203a6fc <boot_start_check_nvfile>:
 203a6fc:	2200      	movs	r2, #0
 203a6fe:	b530      	push	{r4, r5, lr}
 203a700:	4c14      	ldr	r4, [pc, #80]	; (203a754 <boot_start_check_nvfile+0x58>)
 203a702:	b083      	sub	sp, #12
 203a704:	69e5      	ldr	r5, [r4, #28]
 203a706:	9201      	str	r2, [sp, #4]
 203a708:	7b2b      	ldrb	r3, [r5, #12]
 203a70a:	07da      	lsls	r2, r3, #31
 203a70c:	d40a      	bmi.n	203a724 <boot_start_check_nvfile+0x28>
 203a70e:	079b      	lsls	r3, r3, #30
 203a710:	d40f      	bmi.n	203a732 <boot_start_check_nvfile+0x36>
 203a712:	2000      	movs	r0, #0
 203a714:	f894 3028 	ldrb.w	r3, [r4, #40]	; 0x28
 203a718:	f043 0308 	orr.w	r3, r3, #8
 203a71c:	f884 3028 	strb.w	r3, [r4, #40]	; 0x28
 203a720:	b003      	add	sp, #12
 203a722:	bd30      	pop	{r4, r5, pc}
 203a724:	6920      	ldr	r0, [r4, #16]
 203a726:	f7ff faf1 	bl	2039d0c <uapi_nv_check_file>
 203a72a:	b978      	cbnz	r0, 203a74c <boot_start_check_nvfile+0x50>
 203a72c:	7b2b      	ldrb	r3, [r5, #12]
 203a72e:	079b      	lsls	r3, r3, #30
 203a730:	d5ef      	bpl.n	203a712 <boot_start_check_nvfile+0x16>
 203a732:	6920      	ldr	r0, [r4, #16]
 203a734:	a901      	add	r1, sp, #4
 203a736:	f7ff fb19 	bl	2039d6c <uapi_nv_get_ver>
 203a73a:	b918      	cbnz	r0, 203a744 <boot_start_check_nvfile+0x48>
 203a73c:	68aa      	ldr	r2, [r5, #8]
 203a73e:	9b01      	ldr	r3, [sp, #4]
 203a740:	429a      	cmp	r2, r3
 203a742:	d0e6      	beq.n	203a712 <boot_start_check_nvfile+0x16>
 203a744:	f241 3090 	movw	r0, #5008	; 0x1390
 203a748:	b003      	add	sp, #12
 203a74a:	bd30      	pop	{r4, r5, pc}
 203a74c:	f241 308f 	movw	r0, #5007	; 0x138f
 203a750:	e7e6      	b.n	203a720 <boot_start_check_nvfile+0x24>
 203a752:	bf00      	nop
 203a754:	0203c3e4 	andeq	ip, r3, #228, 6	; 0x90000003

0203a758 <uint_2_multiply.constprop.0>:
 203a758:	2001      	movs	r0, #1
 203a75a:	4770      	bx	lr

0203a75c <boot_upg_init_phase1>:
 203a75c:	b530      	push	{r4, r5, lr}
 203a75e:	b097      	sub	sp, #92	; 0x5c
 203a760:	223c      	movs	r2, #60	; 0x3c
 203a762:	2100      	movs	r1, #0
 203a764:	a807      	add	r0, sp, #28
 203a766:	f001 fb2b 	bl	203bdc0 <__memset_veneer>
 203a76a:	2300      	movs	r3, #0
 203a76c:	223c      	movs	r2, #60	; 0x3c
 203a76e:	a907      	add	r1, sp, #28
 203a770:	2004      	movs	r0, #4
 203a772:	e9cd 3303 	strd	r3, r3, [sp, #12]
 203a776:	e9cd 3305 	strd	r3, r3, [sp, #20]
 203a77a:	f7ff fab7 	bl	2039cec <uapi_factory_nv_read>
 203a77e:	2210      	movs	r2, #16
 203a780:	4604      	mov	r4, r0
 203a782:	a903      	add	r1, sp, #12
 203a784:	2003      	movs	r0, #3
 203a786:	f7ff fab1 	bl	2039cec <uapi_factory_nv_read>
 203a78a:	4304      	orrs	r4, r0
 203a78c:	d002      	beq.n	203a794 <boot_upg_init_phase1+0x38>
 203a78e:	4620      	mov	r0, r4
 203a790:	b017      	add	sp, #92	; 0x5c
 203a792:	bd30      	pop	{r4, r5, pc}
 203a794:	f8bd 102c 	ldrh.w	r1, [sp, #44]	; 0x2c
 203a798:	f3c1 010b 	ubfx	r1, r1, #0, #12
 203a79c:	4608      	mov	r0, r1
 203a79e:	f7ff ffdb 	bl	203a758 <uint_2_multiply.constprop.0>
 203a7a2:	b3a0      	cbz	r0, 203a80e <boot_upg_init_phase1+0xb2>
 203a7a4:	f8bd 2028 	ldrh.w	r2, [sp, #40]	; 0x28
 203a7a8:	f3c2 020b 	ubfx	r2, r2, #0, #12
 203a7ac:	4610      	mov	r0, r2
 203a7ae:	f7ff ffd3 	bl	203a758 <uint_2_multiply.constprop.0>
 203a7b2:	b360      	cbz	r0, 203a80e <boot_upg_init_phase1+0xb2>
 203a7b4:	f8bd 3030 	ldrh.w	r3, [sp, #48]	; 0x30
 203a7b8:	f3c3 030b 	ubfx	r3, r3, #0, #12
 203a7bc:	4618      	mov	r0, r3
 203a7be:	f7ff ffcb 	bl	203a758 <uint_2_multiply.constprop.0>
 203a7c2:	b320      	cbz	r0, 203a80e <boot_upg_init_phase1+0xb2>
 203a7c4:	f8bd 5020 	ldrh.w	r5, [sp, #32]
 203a7c8:	f3c5 050b 	ubfx	r5, r5, #0, #12
 203a7cc:	4628      	mov	r0, r5
 203a7ce:	f7ff ffc3 	bl	203a758 <uint_2_multiply.constprop.0>
 203a7d2:	b1e0      	cbz	r0, 203a80e <boot_upg_init_phase1+0xb2>
 203a7d4:	980c      	ldr	r0, [sp, #48]	; 0x30
 203a7d6:	032d      	lsls	r5, r5, #12
 203a7d8:	f3c0 300b 	ubfx	r0, r0, #12, #12
 203a7dc:	4403      	add	r3, r0
 203a7de:	480e      	ldr	r0, [pc, #56]	; (203a818 <boot_upg_init_phase1+0xbc>)
 203a7e0:	9500      	str	r5, [sp, #0]
 203a7e2:	6085      	str	r5, [r0, #8]
 203a7e4:	f890 5028 	ldrb.w	r5, [r0, #40]	; 0x28
 203a7e8:	0309      	lsls	r1, r1, #12
 203a7ea:	f045 0501 	orr.w	r5, r5, #1
 203a7ee:	f880 5028 	strb.w	r5, [r0, #40]	; 0x28
 203a7f2:	9d03      	ldr	r5, [sp, #12]
 203a7f4:	0312      	lsls	r2, r2, #12
 203a7f6:	6045      	str	r5, [r0, #4]
 203a7f8:	4d08      	ldr	r5, [pc, #32]	; (203a81c <boot_upg_init_phase1+0xc0>)
 203a7fa:	031b      	lsls	r3, r3, #12
 203a7fc:	e9c0 1203 	strd	r1, r2, [r0, #12]
 203a800:	e9c0 3405 	strd	r3, r4, [r0, #20]
 203a804:	6005      	str	r5, [r0, #0]
 203a806:	4806      	ldr	r0, [pc, #24]	; (203a820 <boot_upg_init_phase1+0xc4>)
 203a808:	f001 fae6 	bl	203bdd8 <__boot_msg4_veneer>
 203a80c:	e7bf      	b.n	203a78e <boot_upg_init_phase1+0x32>
 203a80e:	f04f 34ff 	mov.w	r4, #4294967295	; 0xffffffff
 203a812:	4620      	mov	r0, r4
 203a814:	b017      	add	sp, #92	; 0x5c
 203a816:	bd30      	pop	{r4, r5, pc}
 203a818:	0203c3e4 	andeq	ip, r3, #228, 6	; 0x90000003
 203a81c:	12121213 	andsne	r1, r2, #805306369	; 0x30000001
 203a820:	0203bb34 	andeq	fp, r3, #52, 22	; 0xd000

0203a824 <boot_upg_init_phash2>:
 203a824:	4b04      	ldr	r3, [pc, #16]	; (203a838 <boot_upg_init_phash2+0x14>)
 203a826:	4805      	ldr	r0, [pc, #20]	; (203a83c <boot_upg_init_phash2+0x18>)
 203a828:	4905      	ldr	r1, [pc, #20]	; (203a840 <boot_upg_init_phash2+0x1c>)
 203a82a:	4a06      	ldr	r2, [pc, #24]	; (203a844 <boot_upg_init_phash2+0x20>)
 203a82c:	e9c3 0108 	strd	r0, r1, [r3, #32]
 203a830:	61da      	str	r2, [r3, #28]
 203a832:	2000      	movs	r0, #0
 203a834:	4770      	bx	lr
 203a836:	bf00      	nop
 203a838:	0203c3e4 	andeq	ip, r3, #228, 6	; 0x90000003
 203a83c:	0203c43c 	andeq	ip, r3, #60, 8	; 0x3c000000
 203a840:	0203c498 	andeq	ip, r3, #152, 8	; 0x98000000
 203a844:	0203c410 	andeq	ip, r3, #16, 8	; 0x10000000

0203a848 <uapi_product_get_type>:
 203a848:	4b01      	ldr	r3, [pc, #4]	; (203a850 <uapi_product_get_type+0x8>)
 203a84a:	6858      	ldr	r0, [r3, #4]
 203a84c:	4770      	bx	lr
 203a84e:	bf00      	nop
 203a850:	0203c3e4 	andeq	ip, r3, #228, 6	; 0x90000003

0203a854 <upg_check_chip_maigc>:
 203a854:	f641 5356 	movw	r3, #7510	; 0x1d56
 203a858:	4a02      	ldr	r2, [pc, #8]	; (203a864 <upg_check_chip_maigc+0x10>)
 203a85a:	4290      	cmp	r0, r2
 203a85c:	bf14      	ite	ne
 203a85e:	4618      	movne	r0, r3
 203a860:	2000      	moveq	r0, #0
 203a862:	4770      	bx	lr
 203a864:	57555557 			; <UNDEFINED> instruction: 0x57555557

0203a868 <upg_check_file_len>:
 203a868:	f641 5359 	movw	r3, #7513	; 0x1d59
 203a86c:	f1b0 7f80 	cmp.w	r0, #16777216	; 0x1000000
 203a870:	bf8c      	ite	hi
 203a872:	4618      	movhi	r0, r3
 203a874:	2000      	movls	r0, #0
 203a876:	4770      	bx	lr

0203a878 <boot_upg_check_by_file_type>:
 203a878:	b510      	push	{r4, lr}
 203a87a:	f890 3033 	ldrb.w	r3, [r0, #51]	; 0x33
 203a87e:	4c19      	ldr	r4, [pc, #100]	; (203a8e4 <boot_upg_check_by_file_type+0x6c>)
 203a880:	2b01      	cmp	r3, #1
 203a882:	69e1      	ldr	r1, [r4, #28]
 203a884:	6a62      	ldr	r2, [r4, #36]	; 0x24
 203a886:	f884 302b 	strb.w	r3, [r4, #43]	; 0x2b
 203a88a:	d01c      	beq.n	203a8c6 <boot_upg_check_by_file_type+0x4e>
 203a88c:	2b03      	cmp	r3, #3
 203a88e:	d00f      	beq.n	203a8b0 <boot_upg_check_by_file_type+0x38>
 203a890:	f890 103c 	ldrb.w	r1, [r0, #60]	; 0x3c
 203a894:	69a4      	ldr	r4, [r4, #24]
 203a896:	6c00      	ldr	r0, [r0, #64]	; 0x40
 203a898:	eb01 0141 	add.w	r1, r1, r1, lsl #1
 203a89c:	0089      	lsls	r1, r1, #2
 203a89e:	4420      	add	r0, r4
 203a8a0:	f7fe fd88 	bl	20393b4 <uapi_flash_read>
 203a8a4:	f241 3398 	movw	r3, #5016	; 0x1398
 203a8a8:	2800      	cmp	r0, #0
 203a8aa:	bf18      	it	ne
 203a8ac:	4618      	movne	r0, r3
 203a8ae:	bd10      	pop	{r4, pc}
 203a8b0:	6a81      	ldr	r1, [r0, #40]	; 0x28
 203a8b2:	6823      	ldr	r3, [r4, #0]
 203a8b4:	4299      	cmp	r1, r3
 203a8b6:	d010      	beq.n	203a8da <boot_upg_check_by_file_type+0x62>
 203a8b8:	f894 3028 	ldrb.w	r3, [r4, #40]	; 0x28
 203a8bc:	f043 0320 	orr.w	r3, r3, #32
 203a8c0:	f884 3028 	strb.w	r3, [r4, #40]	; 0x28
 203a8c4:	e7e4      	b.n	203a890 <boot_upg_check_by_file_type+0x18>
 203a8c6:	688b      	ldr	r3, [r1, #8]
 203a8c8:	6a81      	ldr	r1, [r0, #40]	; 0x28
 203a8ca:	4299      	cmp	r1, r3
 203a8cc:	d1f4      	bne.n	203a8b8 <boot_upg_check_by_file_type+0x40>
 203a8ce:	8d23      	ldrh	r3, [r4, #40]	; 0x28
 203a8d0:	f403 7381 	and.w	r3, r3, #258	; 0x102
 203a8d4:	2b02      	cmp	r3, #2
 203a8d6:	d1ef      	bne.n	203a8b8 <boot_upg_check_by_file_type+0x40>
 203a8d8:	e7da      	b.n	203a890 <boot_upg_check_by_file_type+0x18>
 203a8da:	f894 3029 	ldrb.w	r3, [r4, #41]	; 0x29
 203a8de:	07db      	lsls	r3, r3, #31
 203a8e0:	d4ea      	bmi.n	203a8b8 <boot_upg_check_by_file_type+0x40>
 203a8e2:	e7d5      	b.n	203a890 <boot_upg_check_by_file_type+0x18>
 203a8e4:	0203c3e4 	andeq	ip, r3, #228, 6	; 0x90000003

0203a8e8 <upg_check_product_list.constprop.0>:
 203a8e8:	4602      	mov	r2, r0
 203a8ea:	b508      	push	{r3, lr}
 203a8ec:	f7ff ffac 	bl	203a848 <uapi_product_get_type>
 203a8f0:	8811      	ldrh	r1, [r2, #0]
 203a8f2:	4603      	mov	r3, r0
 203a8f4:	4288      	cmp	r0, r1
 203a8f6:	d302      	bcc.n	203a8fe <upg_check_product_list.constprop.0+0x16>
 203a8f8:	8851      	ldrh	r1, [r2, #2]
 203a8fa:	4288      	cmp	r0, r1
 203a8fc:	d909      	bls.n	203a912 <upg_check_product_list.constprop.0+0x2a>
 203a8fe:	8891      	ldrh	r1, [r2, #4]
 203a900:	f641 505a 	movw	r0, #7514	; 0x1d5a
 203a904:	428b      	cmp	r3, r1
 203a906:	d303      	bcc.n	203a910 <upg_check_product_list.constprop.0+0x28>
 203a908:	88d2      	ldrh	r2, [r2, #6]
 203a90a:	4293      	cmp	r3, r2
 203a90c:	bf98      	it	ls
 203a90e:	2000      	movls	r0, #0
 203a910:	bd08      	pop	{r3, pc}
 203a912:	2000      	movs	r0, #0
 203a914:	bd08      	pop	{r3, pc}
 203a916:	bf00      	nop

0203a918 <upg_check_manufactuer>:
 203a918:	f245 7244 	movw	r2, #22340	; 0x5744
 203a91c:	f641 5357 	movw	r3, #7511	; 0x1d57
 203a920:	4290      	cmp	r0, r2
 203a922:	bf14      	ite	ne
 203a924:	4618      	movne	r0, r3
 203a926:	2000      	moveq	r0, #0
 203a928:	4770      	bx	lr
 203a92a:	bf00      	nop

0203a92c <upg_check_file_type>:
 203a92c:	f641 5258 	movw	r2, #7512	; 0x1d58
 203a930:	f000 03fd 	and.w	r3, r0, #253	; 0xfd
 203a934:	2b01      	cmp	r3, #1
 203a936:	bf14      	ite	ne
 203a938:	4610      	movne	r0, r2
 203a93a:	2000      	moveq	r0, #0
 203a93c:	4770      	bx	lr
 203a93e:	bf00      	nop

0203a940 <upg_conver_tail_addr_2_head_addr>:
 203a940:	2300      	movs	r3, #0
 203a942:	b530      	push	{r4, r5, lr}
 203a944:	b087      	sub	sp, #28
 203a946:	460d      	mov	r5, r1
 203a948:	4604      	mov	r4, r0
 203a94a:	2114      	movs	r1, #20
 203a94c:	aa01      	add	r2, sp, #4
 203a94e:	3814      	subs	r0, #20
 203a950:	e9cd 3301 	strd	r3, r3, [sp, #4]
 203a954:	e9cd 3303 	strd	r3, r3, [sp, #12]
 203a958:	9305      	str	r3, [sp, #20]
 203a95a:	f7fe fd2b 	bl	20393b4 <uapi_flash_read>
 203a95e:	b998      	cbnz	r0, 203a988 <upg_conver_tail_addr_2_head_addr+0x48>
 203a960:	4b23      	ldr	r3, [pc, #140]	; (203a9f0 <upg_conver_tail_addr_2_head_addr+0xb0>)
 203a962:	9a05      	ldr	r2, [sp, #20]
 203a964:	429a      	cmp	r2, r3
 203a966:	d111      	bne.n	203a98c <upg_conver_tail_addr_2_head_addr+0x4c>
 203a968:	9b04      	ldr	r3, [sp, #16]
 203a96a:	42a3      	cmp	r3, r4
 203a96c:	d23d      	bcs.n	203a9ea <upg_conver_tail_addr_2_head_addr+0xaa>
 203a96e:	4a21      	ldr	r2, [pc, #132]	; (203a9f4 <upg_conver_tail_addr_2_head_addr+0xb4>)
 203a970:	9901      	ldr	r1, [sp, #4]
 203a972:	4291      	cmp	r1, r2
 203a974:	4a20      	ldr	r2, [pc, #128]	; (203a9f8 <upg_conver_tail_addr_2_head_addr+0xb8>)
 203a976:	d00d      	beq.n	203a994 <upg_conver_tail_addr_2_head_addr+0x54>
 203a978:	f892 1029 	ldrb.w	r1, [r2, #41]	; 0x29
 203a97c:	f360 0100 	bfi	r1, r0, #0, #1
 203a980:	f882 1029 	strb.w	r1, [r2, #41]	; 0x29
 203a984:	1ae3      	subs	r3, r4, r3
 203a986:	602b      	str	r3, [r5, #0]
 203a988:	b007      	add	sp, #28
 203a98a:	bd30      	pop	{r4, r5, pc}
 203a98c:	f241 30c9 	movw	r0, #5065	; 0x13c9
 203a990:	b007      	add	sp, #28
 203a992:	bd30      	pop	{r4, r5, pc}
 203a994:	f64d 6c72 	movw	ip, #56946	; 0xde72
 203a998:	f892 1029 	ldrb.w	r1, [r2, #41]	; 0x29
 203a99c:	f041 0101 	orr.w	r1, r1, #1
 203a9a0:	f882 1029 	strb.w	r1, [r2, #41]	; 0x29
 203a9a4:	f8bd 100e 	ldrh.w	r1, [sp, #14]
 203a9a8:	4561      	cmp	r1, ip
 203a9aa:	d105      	bne.n	203a9b8 <upg_conver_tail_addr_2_head_addr+0x78>
 203a9ac:	f892 1029 	ldrb.w	r1, [r2, #41]	; 0x29
 203a9b0:	f041 0110 	orr.w	r1, r1, #16
 203a9b4:	f882 1029 	strb.w	r1, [r2, #41]	; 0x29
 203a9b8:	f64d 6172 	movw	r1, #56946	; 0xde72
 203a9bc:	f8bd c00c 	ldrh.w	ip, [sp, #12]
 203a9c0:	458c      	cmp	ip, r1
 203a9c2:	d105      	bne.n	203a9d0 <upg_conver_tail_addr_2_head_addr+0x90>
 203a9c4:	f892 1029 	ldrb.w	r1, [r2, #41]	; 0x29
 203a9c8:	f041 0108 	orr.w	r1, r1, #8
 203a9cc:	f882 1029 	strb.w	r1, [r2, #41]	; 0x29
 203a9d0:	f64d 6172 	movw	r1, #56946	; 0xde72
 203a9d4:	f8bd c00a 	ldrh.w	ip, [sp, #10]
 203a9d8:	458c      	cmp	ip, r1
 203a9da:	d1d3      	bne.n	203a984 <upg_conver_tail_addr_2_head_addr+0x44>
 203a9dc:	f892 1029 	ldrb.w	r1, [r2, #41]	; 0x29
 203a9e0:	f041 0104 	orr.w	r1, r1, #4
 203a9e4:	f882 1029 	strb.w	r1, [r2, #41]	; 0x29
 203a9e8:	e7cc      	b.n	203a984 <upg_conver_tail_addr_2_head_addr+0x44>
 203a9ea:	f241 30ca 	movw	r0, #5066	; 0x13ca
 203a9ee:	e7cb      	b.n	203a988 <upg_conver_tail_addr_2_head_addr+0x48>
 203a9f0:	57555557 			; <UNDEFINED> instruction: 0x57555557
 203a9f4:	a509b84e 	strge	fp, [r9, #-2126]	; 0xfffff7b2
 203a9f8:	0203c3e4 	andeq	ip, r3, #228, 6	; 0x90000003

0203a9fc <upg_get_head_from_flash.constprop.0>:
 203a9fc:	b510      	push	{r4, lr}
 203a9fe:	460c      	mov	r4, r1
 203aa00:	4906      	ldr	r1, [pc, #24]	; (203aa1c <upg_get_head_from_flash.constprop.0+0x20>)
 203aa02:	f7ff ff9d 	bl	203a940 <upg_conver_tail_addr_2_head_addr>
 203aa06:	b938      	cbnz	r0, 203aa18 <upg_get_head_from_flash.constprop.0+0x1c>
 203aa08:	4b05      	ldr	r3, [pc, #20]	; (203aa20 <upg_get_head_from_flash.constprop.0+0x24>)
 203aa0a:	4622      	mov	r2, r4
 203aa0c:	e8bd 4010 	ldmia.w	sp!, {r4, lr}
 203aa10:	215c      	movs	r1, #92	; 0x5c
 203aa12:	6998      	ldr	r0, [r3, #24]
 203aa14:	f7fe bcce 	b.w	20393b4 <uapi_flash_read>
 203aa18:	bd10      	pop	{r4, pc}
 203aa1a:	bf00      	nop
 203aa1c:	0203c3fc 	andeq	ip, r3, #252, 6	; 0xf0000003
 203aa20:	0203c3e4 	andeq	ip, r3, #228, 6	; 0x90000003

0203aa24 <upg_check_head_common_info>:
 203aa24:	b510      	push	{r4, lr}
 203aa26:	4604      	mov	r4, r0
 203aa28:	6a40      	ldr	r0, [r0, #36]	; 0x24
 203aa2a:	f7ff ff1d 	bl	203a868 <upg_check_file_len>
 203aa2e:	b9b8      	cbnz	r0, 203aa60 <upg_check_head_common_info+0x3c>
 203aa30:	6820      	ldr	r0, [r4, #0]
 203aa32:	f7ff ff0f 	bl	203a854 <upg_check_chip_maigc>
 203aa36:	b9c8      	cbnz	r0, 203aa6c <upg_check_head_common_info+0x48>
 203aa38:	8e20      	ldrh	r0, [r4, #48]	; 0x30
 203aa3a:	f7ff ff6d 	bl	203a918 <upg_check_manufactuer>
 203aa3e:	b990      	cbnz	r0, 203aa66 <upg_check_head_common_info+0x42>
 203aa40:	f894 0033 	ldrb.w	r0, [r4, #51]	; 0x33
 203aa44:	7008      	strb	r0, [r1, #0]
 203aa46:	f7ff ff71 	bl	203a92c <upg_check_file_type>
 203aa4a:	b990      	cbnz	r0, 203aa72 <upg_check_head_common_info+0x4e>
 203aa4c:	f104 0034 	add.w	r0, r4, #52	; 0x34
 203aa50:	f7ff ff4a 	bl	203a8e8 <upg_check_product_list.constprop.0>
 203aa54:	f641 535a 	movw	r3, #7514	; 0x1d5a
 203aa58:	2800      	cmp	r0, #0
 203aa5a:	bf18      	it	ne
 203aa5c:	4618      	movne	r0, r3
 203aa5e:	bd10      	pop	{r4, pc}
 203aa60:	f641 5059 	movw	r0, #7513	; 0x1d59
 203aa64:	bd10      	pop	{r4, pc}
 203aa66:	f641 5057 	movw	r0, #7511	; 0x1d57
 203aa6a:	bd10      	pop	{r4, pc}
 203aa6c:	f641 5056 	movw	r0, #7510	; 0x1d56
 203aa70:	bd10      	pop	{r4, pc}
 203aa72:	f641 5058 	movw	r0, #7512	; 0x1d58
 203aa76:	bd10      	pop	{r4, pc}

0203aa78 <uapi_upg_check_head>:
 203aa78:	2300      	movs	r3, #0
 203aa7a:	b530      	push	{r4, r5, lr}
 203aa7c:	b083      	sub	sp, #12
 203aa7e:	f10d 0107 	add.w	r1, sp, #7
 203aa82:	4605      	mov	r5, r0
 203aa84:	f88d 3007 	strb.w	r3, [sp, #7]
 203aa88:	f7ff ffcc 	bl	203aa24 <upg_check_head_common_info>
 203aa8c:	4604      	mov	r4, r0
 203aa8e:	b110      	cbz	r0, 203aa96 <uapi_upg_check_head+0x1e>
 203aa90:	4620      	mov	r0, r4
 203aa92:	b003      	add	sp, #12
 203aa94:	bd30      	pop	{r4, r5, pc}
 203aa96:	f105 0058 	add.w	r0, r5, #88	; 0x58
 203aa9a:	f7ff fb19 	bl	203a0d0 <uapi_flash_partition_check_ver>
 203aa9e:	f89d 3007 	ldrb.w	r3, [sp, #7]
 203aaa2:	2b01      	cmp	r3, #1
 203aaa4:	d007      	beq.n	203aab6 <uapi_upg_check_head+0x3e>
 203aaa6:	f641 525c 	movw	r2, #7516	; 0x1d5c
 203aaaa:	2b03      	cmp	r3, #3
 203aaac:	bf18      	it	ne
 203aaae:	4614      	movne	r4, r2
 203aab0:	4620      	mov	r0, r4
 203aab2:	b003      	add	sp, #12
 203aab4:	bd30      	pop	{r4, r5, pc}
 203aab6:	f641 535b 	movw	r3, #7515	; 0x1d5b
 203aaba:	2800      	cmp	r0, #0
 203aabc:	bf18      	it	ne
 203aabe:	461c      	movne	r4, r3
 203aac0:	4620      	mov	r0, r4
 203aac2:	b003      	add	sp, #12
 203aac4:	bd30      	pop	{r4, r5, pc}
 203aac6:	bf00      	nop

0203aac8 <boot_upg_clear_upg_magic_one>:
 203aac8:	2200      	movs	r2, #0
 203aaca:	b500      	push	{lr}
 203aacc:	4911      	ldr	r1, [pc, #68]	; (203ab14 <boot_upg_clear_upg_magic_one+0x4c>)
 203aace:	b083      	sub	sp, #12
 203aad0:	f891 3029 	ldrb.w	r3, [r1, #41]	; 0x29
 203aad4:	9201      	str	r2, [sp, #4]
 203aad6:	f013 001c 	ands.w	r0, r3, #28
 203aada:	d009      	beq.n	203aaf0 <boot_upg_clear_upg_magic_one+0x28>
 203aadc:	f3c3 0082 	ubfx	r0, r3, #2, #3
 203aae0:	075b      	lsls	r3, r3, #29
 203aae2:	d408      	bmi.n	203aaf6 <boot_upg_clear_upg_magic_one+0x2e>
 203aae4:	0783      	lsls	r3, r0, #30
 203aae6:	d412      	bmi.n	203ab0e <boot_upg_clear_upg_magic_one+0x46>
 203aae8:	1080      	asrs	r0, r0, #2
 203aaea:	bf18      	it	ne
 203aaec:	2002      	movne	r0, #2
 203aaee:	d103      	bne.n	203aaf8 <boot_upg_clear_upg_magic_one+0x30>
 203aaf0:	b003      	add	sp, #12
 203aaf2:	f85d fb04 	ldr.w	pc, [sp], #4
 203aaf6:	4610      	mov	r0, r2
 203aaf8:	694a      	ldr	r2, [r1, #20]
 203aafa:	2300      	movs	r3, #0
 203aafc:	f1a2 0c0e 	sub.w	ip, r2, #14
 203ab00:	2102      	movs	r1, #2
 203ab02:	aa01      	add	r2, sp, #4
 203ab04:	eb0c 0040 	add.w	r0, ip, r0, lsl #1
 203ab08:	f7fe fc32 	bl	2039370 <uapi_flash_write>
 203ab0c:	e7f0      	b.n	203aaf0 <boot_upg_clear_upg_magic_one+0x28>
 203ab0e:	2001      	movs	r0, #1
 203ab10:	e7f2      	b.n	203aaf8 <boot_upg_clear_upg_magic_one+0x30>
 203ab12:	bf00      	nop
 203ab14:	0203c3e4 	andeq	ip, r3, #228, 6	; 0x90000003

0203ab18 <boot_upg_clear_upg_magic_all>:
 203ab18:	b5f0      	push	{r4, r5, r6, r7, lr}
 203ab1a:	2400      	movs	r4, #0
 203ab1c:	4e11      	ldr	r6, [pc, #68]	; (203ab64 <boot_upg_clear_upg_magic_all+0x4c>)
 203ab1e:	b083      	sub	sp, #12
 203ab20:	f896 0029 	ldrb.w	r0, [r6, #41]	; 0x29
 203ab24:	9401      	str	r4, [sp, #4]
 203ab26:	f010 051c 	ands.w	r5, r0, #28
 203ab2a:	d010      	beq.n	203ab4e <boot_upg_clear_upg_magic_all+0x36>
 203ab2c:	4625      	mov	r5, r4
 203ab2e:	6977      	ldr	r7, [r6, #20]
 203ab30:	3f0e      	subs	r7, #14
 203ab32:	f896 3029 	ldrb.w	r3, [r6, #41]	; 0x29
 203ab36:	f3c3 0382 	ubfx	r3, r3, #2, #3
 203ab3a:	4123      	asrs	r3, r4
 203ab3c:	f013 0f01 	tst.w	r3, #1
 203ab40:	f104 0401 	add.w	r4, r4, #1
 203ab44:	d106      	bne.n	203ab54 <boot_upg_clear_upg_magic_all+0x3c>
 203ab46:	2c03      	cmp	r4, #3
 203ab48:	f107 0702 	add.w	r7, r7, #2
 203ab4c:	d1f1      	bne.n	203ab32 <boot_upg_clear_upg_magic_all+0x1a>
 203ab4e:	4628      	mov	r0, r5
 203ab50:	b003      	add	sp, #12
 203ab52:	bdf0      	pop	{r4, r5, r6, r7, pc}
 203ab54:	2300      	movs	r3, #0
 203ab56:	4638      	mov	r0, r7
 203ab58:	2102      	movs	r1, #2
 203ab5a:	aa01      	add	r2, sp, #4
 203ab5c:	f7fe fc08 	bl	2039370 <uapi_flash_write>
 203ab60:	4305      	orrs	r5, r0
 203ab62:	e7f0      	b.n	203ab46 <boot_upg_clear_upg_magic_all+0x2e>
 203ab64:	0203c3e4 	andeq	ip, r3, #228, 6	; 0x90000003

0203ab68 <boot_upg_check_upg_phase0>:
 203ab68:	b510      	push	{r4, lr}
 203ab6a:	4c08      	ldr	r4, [pc, #32]	; (203ab8c <boot_upg_check_upg_phase0+0x24>)
 203ab6c:	6a21      	ldr	r1, [r4, #32]
 203ab6e:	b151      	cbz	r1, 203ab86 <boot_upg_check_upg_phase0+0x1e>
 203ab70:	6960      	ldr	r0, [r4, #20]
 203ab72:	f7ff ff43 	bl	203a9fc <upg_get_head_from_flash.constprop.0>
 203ab76:	b928      	cbnz	r0, 203ab84 <boot_upg_check_upg_phase0+0x1c>
 203ab78:	f894 3029 	ldrb.w	r3, [r4, #41]	; 0x29
 203ab7c:	f043 0302 	orr.w	r3, r3, #2
 203ab80:	f884 3029 	strb.w	r3, [r4, #41]	; 0x29
 203ab84:	bd10      	pop	{r4, pc}
 203ab86:	f241 30ee 	movw	r0, #5102	; 0x13ee
 203ab8a:	bd10      	pop	{r4, pc}
 203ab8c:	0203c3e4 	andeq	ip, r3, #228, 6	; 0x90000003

0203ab90 <boot_upg_check_upg_phase1>:
 203ab90:	2000      	movs	r0, #0
 203ab92:	b530      	push	{r4, r5, lr}
 203ab94:	4c1e      	ldr	r4, [pc, #120]	; (203ac10 <boot_upg_check_upg_phase1+0x80>)
 203ab96:	b089      	sub	sp, #36	; 0x24
 203ab98:	6a25      	ldr	r5, [r4, #32]
 203ab9a:	e9cd 0000 	strd	r0, r0, [sp]
 203ab9e:	e9cd 0002 	strd	r0, r0, [sp, #8]
 203aba2:	e9cd 0004 	strd	r0, r0, [sp, #16]
 203aba6:	e9cd 0006 	strd	r0, r0, [sp, #24]
 203abaa:	b34d      	cbz	r5, 203ac00 <boot_upg_check_upg_phase1+0x70>
 203abac:	f894 3029 	ldrb.w	r3, [r4, #41]	; 0x29
 203abb0:	079b      	lsls	r3, r3, #30
 203abb2:	d525      	bpl.n	203ac00 <boot_upg_check_upg_phase1+0x70>
 203abb4:	4b17      	ldr	r3, [pc, #92]	; (203ac14 <boot_upg_check_upg_phase1+0x84>)
 203abb6:	781a      	ldrb	r2, [r3, #0]
 203abb8:	b10a      	cbz	r2, 203abbe <boot_upg_check_upg_phase1+0x2e>
 203abba:	b009      	add	sp, #36	; 0x24
 203abbc:	bd30      	pop	{r4, r5, pc}
 203abbe:	2201      	movs	r2, #1
 203abc0:	4628      	mov	r0, r5
 203abc2:	701a      	strb	r2, [r3, #0]
 203abc4:	f7ff ff58 	bl	203aa78 <uapi_upg_check_head>
 203abc8:	2800      	cmp	r0, #0
 203abca:	d1f6      	bne.n	203abba <boot_upg_check_upg_phase1+0x2a>
 203abcc:	6a69      	ldr	r1, [r5, #36]	; 0x24
 203abce:	69a0      	ldr	r0, [r4, #24]
 203abd0:	466a      	mov	r2, sp
 203abd2:	3924      	subs	r1, #36	; 0x24
 203abd4:	3024      	adds	r0, #36	; 0x24
 203abd6:	f000 fbc7 	bl	203b368 <upg_hash_block>
 203abda:	b9a8      	cbnz	r0, 203ac08 <boot_upg_check_upg_phase1+0x78>
 203abdc:	2220      	movs	r2, #32
 203abde:	4669      	mov	r1, sp
 203abe0:	1d28      	adds	r0, r5, #4
 203abe2:	f001 f885 	bl	203bcf0 <__memcmp_veneer>
 203abe6:	b978      	cbnz	r0, 203ac08 <boot_upg_check_upg_phase1+0x78>
 203abe8:	4628      	mov	r0, r5
 203abea:	f7ff fe45 	bl	203a878 <boot_upg_check_by_file_type>
 203abee:	2800      	cmp	r0, #0
 203abf0:	d1e3      	bne.n	203abba <boot_upg_check_upg_phase1+0x2a>
 203abf2:	f894 3028 	ldrb.w	r3, [r4, #40]	; 0x28
 203abf6:	f043 0340 	orr.w	r3, r3, #64	; 0x40
 203abfa:	f884 3028 	strb.w	r3, [r4, #40]	; 0x28
 203abfe:	e7dc      	b.n	203abba <boot_upg_check_upg_phase1+0x2a>
 203ac00:	f04f 30ff 	mov.w	r0, #4294967295	; 0xffffffff
 203ac04:	b009      	add	sp, #36	; 0x24
 203ac06:	bd30      	pop	{r4, r5, pc}
 203ac08:	f241 3097 	movw	r0, #5015	; 0x1397
 203ac0c:	e7d5      	b.n	203abba <boot_upg_check_upg_phase1+0x2a>
 203ac0e:	bf00      	nop
 203ac10:	0203c3e4 	andeq	ip, r3, #228, 6	; 0x90000003
 203ac14:	0203c4b0 	andeq	ip, r3, #176, 8	; 0xb0000000

0203ac18 <boot_upg_check_upg_phase2>:
 203ac18:	b570      	push	{r4, r5, r6, lr}
 203ac1a:	4d10      	ldr	r5, [pc, #64]	; (203ac5c <boot_upg_check_upg_phase2+0x44>)
 203ac1c:	f895 3028 	ldrb.w	r3, [r5, #40]	; 0x28
 203ac20:	065b      	lsls	r3, r3, #25
 203ac22:	d510      	bpl.n	203ac46 <boot_upg_check_upg_phase2+0x2e>
 203ac24:	6a2e      	ldr	r6, [r5, #32]
 203ac26:	f7ff fb3d 	bl	203a2a4 <boot_upg_check_secure_head>
 203ac2a:	4604      	mov	r4, r0
 203ac2c:	b948      	cbnz	r0, 203ac42 <boot_upg_check_upg_phase2+0x2a>
 203ac2e:	f896 3033 	ldrb.w	r3, [r6, #51]	; 0x33
 203ac32:	2b03      	cmp	r3, #3
 203ac34:	d00b      	beq.n	203ac4e <boot_upg_check_upg_phase2+0x36>
 203ac36:	f895 3028 	ldrb.w	r3, [r5, #40]	; 0x28
 203ac3a:	f043 0380 	orr.w	r3, r3, #128	; 0x80
 203ac3e:	f885 3028 	strb.w	r3, [r5, #40]	; 0x28
 203ac42:	4620      	mov	r0, r4
 203ac44:	bd70      	pop	{r4, r5, r6, pc}
 203ac46:	f241 349d 	movw	r4, #5021	; 0x139d
 203ac4a:	4620      	mov	r0, r4
 203ac4c:	bd70      	pop	{r4, r5, r6, pc}
 203ac4e:	f7ff fbc9 	bl	203a3e4 <boot_upg_check_secure_boot>
 203ac52:	2800      	cmp	r0, #0
 203ac54:	d0ef      	beq.n	203ac36 <boot_upg_check_upg_phase2+0x1e>
 203ac56:	4604      	mov	r4, r0
 203ac58:	e7f3      	b.n	203ac42 <boot_upg_check_upg_phase2+0x2a>
 203ac5a:	bf00      	nop
 203ac5c:	0203c3e4 	andeq	ip, r3, #228, 6	; 0x90000003

0203ac60 <boot_upg_process_boot>:
 203ac60:	2300      	movs	r3, #0
 203ac62:	b5f0      	push	{r4, r5, r6, r7, lr}
 203ac64:	4e24      	ldr	r6, [pc, #144]	; (203acf8 <boot_upg_process_boot+0x98>)
 203ac66:	b089      	sub	sp, #36	; 0x24
 203ac68:	6a75      	ldr	r5, [r6, #36]	; 0x24
 203ac6a:	9302      	str	r3, [sp, #8]
 203ac6c:	b1f5      	cbz	r5, 203acac <boot_upg_process_boot+0x4c>
 203ac6e:	782a      	ldrb	r2, [r5, #0]
 203ac70:	07d2      	lsls	r2, r2, #31
 203ac72:	d41f      	bmi.n	203acb4 <boot_upg_process_boot+0x54>
 203ac74:	68a9      	ldr	r1, [r5, #8]
 203ac76:	9102      	str	r1, [sp, #8]
 203ac78:	b1c1      	cbz	r1, 203acac <boot_upg_process_boot+0x4c>
 203ac7a:	f601 71ff 	addw	r1, r1, #4095	; 0xfff
 203ac7e:	f421 617f 	bic.w	r1, r1, #4080	; 0xff0
 203ac82:	f021 010f 	bic.w	r1, r1, #15
 203ac86:	68b0      	ldr	r0, [r6, #8]
 203ac88:	f7fe fb5a 	bl	2039340 <uapi_flash_erase>
 203ac8c:	782b      	ldrb	r3, [r5, #0]
 203ac8e:	4604      	mov	r4, r0
 203ac90:	69b7      	ldr	r7, [r6, #24]
 203ac92:	6868      	ldr	r0, [r5, #4]
 203ac94:	f003 0301 	and.w	r3, r3, #1
 203ac98:	68aa      	ldr	r2, [r5, #8]
 203ac9a:	68b1      	ldr	r1, [r6, #8]
 203ac9c:	9300      	str	r3, [sp, #0]
 203ac9e:	4438      	add	r0, r7
 203aca0:	9b02      	ldr	r3, [sp, #8]
 203aca2:	f000 fb85 	bl	203b3b0 <upg_copy_flash_2_flash>
 203aca6:	4320      	orrs	r0, r4
 203aca8:	b009      	add	sp, #36	; 0x24
 203acaa:	bdf0      	pop	{r4, r5, r6, r7, pc}
 203acac:	f04f 30ff 	mov.w	r0, #4294967295	; 0xffffffff
 203acb0:	b009      	add	sp, #36	; 0x24
 203acb2:	bdf0      	pop	{r4, r5, r6, r7, pc}
 203acb4:	e9cd 3304 	strd	r3, r3, [sp, #16]
 203acb8:	9306      	str	r3, [sp, #24]
 203acba:	f88d 301c 	strb.w	r3, [sp, #28]
 203acbe:	69b0      	ldr	r0, [r6, #24]
 203acc0:	9303      	str	r3, [sp, #12]
 203acc2:	686b      	ldr	r3, [r5, #4]
 203acc4:	210d      	movs	r1, #13
 203acc6:	4418      	add	r0, r3
 203acc8:	aa04      	add	r2, sp, #16
 203acca:	f7fe fb73 	bl	20393b4 <uapi_flash_read>
 203acce:	2800      	cmp	r0, #0
 203acd0:	d1ea      	bne.n	203aca8 <boot_upg_process_boot+0x48>
 203acd2:	210d      	movs	r1, #13
 203acd4:	ab03      	add	r3, sp, #12
 203acd6:	aa02      	add	r2, sp, #8
 203acd8:	a804      	add	r0, sp, #16
 203acda:	f7fe fc21 	bl	2039520 <uapi_lzma_get_uncompress_len>
 203acde:	2800      	cmp	r0, #0
 203ace0:	d1e2      	bne.n	203aca8 <boot_upg_process_boot+0x48>
 203ace2:	210d      	movs	r1, #13
 203ace4:	a804      	add	r0, sp, #16
 203ace6:	f7fe fc63 	bl	20395b0 <uapi_lzma_mem_detect>
 203acea:	2800      	cmp	r0, #0
 203acec:	d1dc      	bne.n	203aca8 <boot_upg_process_boot+0x48>
 203acee:	9902      	ldr	r1, [sp, #8]
 203acf0:	2900      	cmp	r1, #0
 203acf2:	d1c2      	bne.n	203ac7a <boot_upg_process_boot+0x1a>
 203acf4:	e7da      	b.n	203acac <boot_upg_process_boot+0x4c>
 203acf6:	bf00      	nop
 203acf8:	0203c3e4 	andeq	ip, r3, #228, 6	; 0x90000003

0203acfc <boot_upg_is_do_upg_from_nv>:
 203acfc:	b500      	push	{lr}
 203acfe:	b089      	sub	sp, #36	; 0x24
 203ad00:	2220      	movs	r2, #32
 203ad02:	2100      	movs	r1, #0
 203ad04:	4668      	mov	r0, sp
 203ad06:	f001 f85b 	bl	203bdc0 <__memset_veneer>
 203ad0a:	2220      	movs	r2, #32
 203ad0c:	4669      	mov	r1, sp
 203ad0e:	2007      	movs	r0, #7
 203ad10:	f7fe ffec 	bl	2039cec <uapi_factory_nv_read>
 203ad14:	b918      	cbnz	r0, 203ad1e <boot_upg_is_do_upg_from_nv+0x22>
 203ad16:	4b0d      	ldr	r3, [pc, #52]	; (203ad4c <boot_upg_is_do_upg_from_nv+0x50>)
 203ad18:	9a00      	ldr	r2, [sp, #0]
 203ad1a:	429a      	cmp	r2, r3
 203ad1c:	d003      	beq.n	203ad26 <boot_upg_is_do_upg_from_nv+0x2a>
 203ad1e:	2001      	movs	r0, #1
 203ad20:	b009      	add	sp, #36	; 0x24
 203ad22:	f85d fb04 	ldr.w	pc, [sp], #4
 203ad26:	f89d 3004 	ldrb.w	r3, [sp, #4]
 203ad2a:	f89d 2005 	ldrb.w	r2, [sp, #5]
 203ad2e:	429a      	cmp	r2, r3
 203ad30:	d3f6      	bcc.n	203ad20 <boot_upg_is_do_upg_from_nv+0x24>
 203ad32:	3301      	adds	r3, #1
 203ad34:	2220      	movs	r2, #32
 203ad36:	4669      	mov	r1, sp
 203ad38:	2007      	movs	r0, #7
 203ad3a:	f88d 3004 	strb.w	r3, [sp, #4]
 203ad3e:	f7fe ffd9 	bl	2039cf4 <uapi_factory_nv_write>
 203ad42:	2001      	movs	r0, #1
 203ad44:	b009      	add	sp, #36	; 0x24
 203ad46:	f85d fb04 	ldr.w	pc, [sp], #4
 203ad4a:	bf00      	nop
 203ad4c:	31564e55 	cmpcc	r6, r5, asr lr

0203ad50 <boot_upg_kernel_lzma_detect>:
 203ad50:	468c      	mov	ip, r1
 203ad52:	2300      	movs	r3, #0
 203ad54:	b530      	push	{r4, r5, lr}
 203ad56:	6984      	ldr	r4, [r0, #24]
 203ad58:	f8dc 0004 	ldr.w	r0, [ip, #4]
 203ad5c:	b087      	sub	sp, #28
 203ad5e:	4615      	mov	r5, r2
 203ad60:	210d      	movs	r1, #13
 203ad62:	aa02      	add	r2, sp, #8
 203ad64:	4420      	add	r0, r4
 203ad66:	e9cd 3302 	strd	r3, r3, [sp, #8]
 203ad6a:	9301      	str	r3, [sp, #4]
 203ad6c:	9304      	str	r3, [sp, #16]
 203ad6e:	f88d 3014 	strb.w	r3, [sp, #20]
 203ad72:	f7fe fb1f 	bl	20393b4 <uapi_flash_read>
 203ad76:	210d      	movs	r1, #13
 203ad78:	4604      	mov	r4, r0
 203ad7a:	462a      	mov	r2, r5
 203ad7c:	a802      	add	r0, sp, #8
 203ad7e:	ab01      	add	r3, sp, #4
 203ad80:	f7fe fbce 	bl	2039520 <uapi_lzma_get_uncompress_len>
 203ad84:	4320      	orrs	r0, r4
 203ad86:	d103      	bne.n	203ad90 <boot_upg_kernel_lzma_detect+0x40>
 203ad88:	210d      	movs	r1, #13
 203ad8a:	a802      	add	r0, sp, #8
 203ad8c:	f7fe fc10 	bl	20395b0 <uapi_lzma_mem_detect>
 203ad90:	b007      	add	sp, #28
 203ad92:	bd30      	pop	{r4, r5, pc}

0203ad94 <boot_upg_kernel_process>:
 203ad94:	b5f0      	push	{r4, r5, r6, r7, lr}
 203ad96:	4e37      	ldr	r6, [pc, #220]	; (203ae74 <boot_upg_kernel_process+0xe0>)
 203ad98:	b085      	sub	sp, #20
 203ad9a:	6a74      	ldr	r4, [r6, #36]	; 0x24
 203ad9c:	2c00      	cmp	r4, #0
 203ad9e:	d064      	beq.n	203ae6a <boot_upg_kernel_process+0xd6>
 203ada0:	7823      	ldrb	r3, [r4, #0]
 203ada2:	07da      	lsls	r2, r3, #31
 203ada4:	d453      	bmi.n	203ae4e <boot_upg_kernel_process+0xba>
 203ada6:	68a3      	ldr	r3, [r4, #8]
 203ada8:	9302      	str	r3, [sp, #8]
 203adaa:	2b00      	cmp	r3, #0
 203adac:	d059      	beq.n	203ae62 <boot_upg_kernel_process+0xce>
 203adae:	7b23      	ldrb	r3, [r4, #12]
 203adb0:	07db      	lsls	r3, r3, #31
 203adb2:	d43d      	bmi.n	203ae30 <boot_upg_kernel_process+0x9c>
 203adb4:	6963      	ldr	r3, [r4, #20]
 203adb6:	9303      	str	r3, [sp, #12]
 203adb8:	2b00      	cmp	r3, #0
 203adba:	d044      	beq.n	203ae46 <boot_upg_kernel_process+0xb2>
 203adbc:	9d02      	ldr	r5, [sp, #8]
 203adbe:	4f2e      	ldr	r7, [pc, #184]	; (203ae78 <boot_upg_kernel_process+0xe4>)
 203adc0:	f605 75ff 	addw	r5, r5, #4095	; 0xfff
 203adc4:	f603 73ff 	addw	r3, r3, #4095	; 0xfff
 203adc8:	403d      	ands	r5, r7
 203adca:	462a      	mov	r2, r5
 203adcc:	401f      	ands	r7, r3
 203adce:	68f1      	ldr	r1, [r6, #12]
 203add0:	482a      	ldr	r0, [pc, #168]	; (203ae7c <boot_upg_kernel_process+0xe8>)
 203add2:	f000 ff91 	bl	203bcf8 <__boot_msg2_veneer>
 203add6:	463a      	mov	r2, r7
 203add8:	4828      	ldr	r0, [pc, #160]	; (203ae7c <boot_upg_kernel_process+0xe8>)
 203adda:	6931      	ldr	r1, [r6, #16]
 203addc:	f000 ff8c 	bl	203bcf8 <__boot_msg2_veneer>
 203ade0:	4629      	mov	r1, r5
 203ade2:	68f0      	ldr	r0, [r6, #12]
 203ade4:	f7fe faac 	bl	2039340 <uapi_flash_erase>
 203ade8:	4639      	mov	r1, r7
 203adea:	4605      	mov	r5, r0
 203adec:	6930      	ldr	r0, [r6, #16]
 203adee:	f7fe faa7 	bl	2039340 <uapi_flash_erase>
 203adf2:	4601      	mov	r1, r0
 203adf4:	7823      	ldrb	r3, [r4, #0]
 203adf6:	68a2      	ldr	r2, [r4, #8]
 203adf8:	f003 0301 	and.w	r3, r3, #1
 203adfc:	6860      	ldr	r0, [r4, #4]
 203adfe:	9300      	str	r3, [sp, #0]
 203ae00:	69b3      	ldr	r3, [r6, #24]
 203ae02:	430d      	orrs	r5, r1
 203ae04:	4418      	add	r0, r3
 203ae06:	68f1      	ldr	r1, [r6, #12]
 203ae08:	9b02      	ldr	r3, [sp, #8]
 203ae0a:	f000 fad1 	bl	203b3b0 <upg_copy_flash_2_flash>
 203ae0e:	7b23      	ldrb	r3, [r4, #12]
 203ae10:	6921      	ldr	r1, [r4, #16]
 203ae12:	4607      	mov	r7, r0
 203ae14:	69b0      	ldr	r0, [r6, #24]
 203ae16:	f003 0301 	and.w	r3, r3, #1
 203ae1a:	6962      	ldr	r2, [r4, #20]
 203ae1c:	4408      	add	r0, r1
 203ae1e:	9300      	str	r3, [sp, #0]
 203ae20:	6931      	ldr	r1, [r6, #16]
 203ae22:	9b03      	ldr	r3, [sp, #12]
 203ae24:	f000 fac4 	bl	203b3b0 <upg_copy_flash_2_flash>
 203ae28:	433d      	orrs	r5, r7
 203ae2a:	4328      	orrs	r0, r5
 203ae2c:	b005      	add	sp, #20
 203ae2e:	bdf0      	pop	{r4, r5, r6, r7, pc}
 203ae30:	4810      	ldr	r0, [pc, #64]	; (203ae74 <boot_upg_kernel_process+0xe0>)
 203ae32:	aa03      	add	r2, sp, #12
 203ae34:	f104 010c 	add.w	r1, r4, #12
 203ae38:	f7ff ff8a 	bl	203ad50 <boot_upg_kernel_lzma_detect>
 203ae3c:	2800      	cmp	r0, #0
 203ae3e:	d1f5      	bne.n	203ae2c <boot_upg_kernel_process+0x98>
 203ae40:	9b03      	ldr	r3, [sp, #12]
 203ae42:	2b00      	cmp	r3, #0
 203ae44:	d1ba      	bne.n	203adbc <boot_upg_kernel_process+0x28>
 203ae46:	f241 309c 	movw	r0, #5020	; 0x139c
 203ae4a:	b005      	add	sp, #20
 203ae4c:	bdf0      	pop	{r4, r5, r6, r7, pc}
 203ae4e:	4621      	mov	r1, r4
 203ae50:	4630      	mov	r0, r6
 203ae52:	aa02      	add	r2, sp, #8
 203ae54:	f7ff ff7c 	bl	203ad50 <boot_upg_kernel_lzma_detect>
 203ae58:	2800      	cmp	r0, #0
 203ae5a:	d1e7      	bne.n	203ae2c <boot_upg_kernel_process+0x98>
 203ae5c:	9b02      	ldr	r3, [sp, #8]
 203ae5e:	2b00      	cmp	r3, #0
 203ae60:	d1a5      	bne.n	203adae <boot_upg_kernel_process+0x1a>
 203ae62:	f241 309b 	movw	r0, #5019	; 0x139b
 203ae66:	b005      	add	sp, #20
 203ae68:	bdf0      	pop	{r4, r5, r6, r7, pc}
 203ae6a:	f04f 30ff 	mov.w	r0, #4294967295	; 0xffffffff
 203ae6e:	b005      	add	sp, #20
 203ae70:	bdf0      	pop	{r4, r5, r6, r7, pc}
 203ae72:	bf00      	nop
 203ae74:	0203c3e4 	andeq	ip, r3, #228, 6	; 0x90000003
 203ae78:	fffff000 			; <UNDEFINED> instruction: 0xfffff000
 203ae7c:	0203bb3c 	andeq	fp, r3, #60, 22	; 0xf000

0203ae80 <flash_boot_verify_sign_alg>:
 203ae80:	8803      	ldrh	r3, [r0, #0]
 203ae82:	b943      	cbnz	r3, 203ae96 <flash_boot_verify_sign_alg+0x16>
 203ae84:	7883      	ldrb	r3, [r0, #2]
 203ae86:	f003 033f 	and.w	r3, r3, #63	; 0x3f
 203ae8a:	2b01      	cmp	r3, #1
 203ae8c:	bf8c      	ite	hi
 203ae8e:	f44f 509e 	movhi.w	r0, #5056	; 0x13c0
 203ae92:	2000      	movls	r0, #0
 203ae94:	4770      	bx	lr
 203ae96:	f44f 509e 	mov.w	r0, #5056	; 0x13c0
 203ae9a:	4770      	bx	lr

0203ae9c <flash_boot_verify_root_pub_key>:
 203ae9c:	2320      	movs	r3, #32
 203ae9e:	b510      	push	{r4, lr}
 203aea0:	4604      	mov	r4, r0
 203aea2:	b090      	sub	sp, #64	; 0x40
 203aea4:	2200      	movs	r2, #0
 203aea6:	4619      	mov	r1, r3
 203aea8:	4668      	mov	r0, sp
 203aeaa:	f000 ff41 	bl	203bd30 <__memset_s_veneer>
 203aeae:	466a      	mov	r2, sp
 203aeb0:	f44f 6180 	mov.w	r1, #1024	; 0x400
 203aeb4:	4620      	mov	r0, r4
 203aeb6:	f000 ff17 	bl	203bce8 <__uapi_hash_sha256_veneer>
 203aeba:	b9c8      	cbnz	r0, 203aef0 <flash_boot_verify_root_pub_key+0x54>
 203aebc:	2320      	movs	r3, #32
 203aebe:	4602      	mov	r2, r0
 203aec0:	4619      	mov	r1, r3
 203aec2:	eb0d 0003 	add.w	r0, sp, r3
 203aec6:	f000 ff33 	bl	203bd30 <__memset_s_veneer>
 203aeca:	2002      	movs	r0, #2
 203aecc:	a908      	add	r1, sp, #32
 203aece:	f000 ff53 	bl	203bd78 <__uapi_efuse_read_veneer>
 203aed2:	b988      	cbnz	r0, 203aef8 <flash_boot_verify_root_pub_key+0x5c>
 203aed4:	2220      	movs	r2, #32
 203aed6:	4668      	mov	r0, sp
 203aed8:	eb0d 0102 	add.w	r1, sp, r2
 203aedc:	f000 ff08 	bl	203bcf0 <__memcmp_veneer>
 203aee0:	f241 33b3 	movw	r3, #5043	; 0x13b3
 203aee4:	2800      	cmp	r0, #0
 203aee6:	bf0c      	ite	eq
 203aee8:	2000      	moveq	r0, #0
 203aeea:	4618      	movne	r0, r3
 203aeec:	b010      	add	sp, #64	; 0x40
 203aeee:	bd10      	pop	{r4, pc}
 203aef0:	f241 30b1 	movw	r0, #5041	; 0x13b1
 203aef4:	b010      	add	sp, #64	; 0x40
 203aef6:	bd10      	pop	{r4, pc}
 203aef8:	f241 30b2 	movw	r0, #5042	; 0x13b2
 203aefc:	b010      	add	sp, #64	; 0x40
 203aefe:	bd10      	pop	{r4, pc}

0203af00 <flash_boot_verify_sub_key>:
 203af00:	f04f 33ff 	mov.w	r3, #4294967295	; 0xffffffff
 203af04:	b5f0      	push	{r4, r5, r6, r7, lr}
 203af06:	b08d      	sub	sp, #52	; 0x34
 203af08:	4606      	mov	r6, r0
 203af0a:	460c      	mov	r4, r1
 203af0c:	2009      	movs	r0, #9
 203af0e:	a903      	add	r1, sp, #12
 203af10:	9303      	str	r3, [sp, #12]
 203af12:	f000 ff31 	bl	203bd78 <__uapi_efuse_read_veneer>
 203af16:	2800      	cmp	r0, #0
 203af18:	d139      	bne.n	203af8e <flash_boot_verify_sub_key+0x8e>
 203af1a:	68a2      	ldr	r2, [r4, #8]
 203af1c:	9b03      	ldr	r3, [sp, #12]
 203af1e:	429a      	cmp	r2, r3
 203af20:	d130      	bne.n	203af84 <flash_boot_verify_sub_key+0x84>
 203af22:	6923      	ldr	r3, [r4, #16]
 203af24:	f5b3 7f80 	cmp.w	r3, #256	; 0x100
 203af28:	d12c      	bne.n	203af84 <flash_boot_verify_sub_key+0x84>
 203af2a:	6967      	ldr	r7, [r4, #20]
 203af2c:	f5b7 7f00 	cmp.w	r7, #512	; 0x200
 203af30:	d128      	bne.n	203af84 <flash_boot_verify_sub_key+0x84>
 203af32:	1d20      	adds	r0, r4, #4
 203af34:	f7ff ffa4 	bl	203ae80 <flash_boot_verify_sign_alg>
 203af38:	4605      	mov	r5, r0
 203af3a:	bb28      	cbnz	r0, 203af88 <flash_boot_verify_sub_key+0x88>
 203af3c:	68e3      	ldr	r3, [r4, #12]
 203af3e:	2b1f      	cmp	r3, #31
 203af40:	d82a      	bhi.n	203af98 <flash_boot_verify_sub_key+0x98>
 203af42:	2320      	movs	r3, #32
 203af44:	4602      	mov	r2, r0
 203af46:	4619      	mov	r1, r3
 203af48:	a804      	add	r0, sp, #16
 203af4a:	f000 fef1 	bl	203bd30 <__memset_s_veneer>
 203af4e:	f44f 7106 	mov.w	r1, #536	; 0x218
 203af52:	4620      	mov	r0, r4
 203af54:	aa04      	add	r2, sp, #16
 203af56:	f000 fec7 	bl	203bce8 <__uapi_hash_sha256_veneer>
 203af5a:	bb00      	cbnz	r0, 203af9e <flash_boot_verify_sub_key+0x9e>
 203af5c:	ab04      	add	r3, sp, #16
 203af5e:	9300      	str	r3, [sp, #0]
 203af60:	79a3      	ldrb	r3, [r4, #6]
 203af62:	f504 7406 	add.w	r4, r4, #536	; 0x218
 203af66:	f003 033f 	and.w	r3, r3, #63	; 0x3f
 203af6a:	463a      	mov	r2, r7
 203af6c:	4630      	mov	r0, r6
 203af6e:	9401      	str	r4, [sp, #4]
 203af70:	f506 7100 	add.w	r1, r6, #512	; 0x200
 203af74:	f000 ff04 	bl	203bd80 <__uapi_rsa_verify_veneer>
 203af78:	f241 33b8 	movw	r3, #5048	; 0x13b8
 203af7c:	2800      	cmp	r0, #0
 203af7e:	bf18      	it	ne
 203af80:	461d      	movne	r5, r3
 203af82:	e001      	b.n	203af88 <flash_boot_verify_sub_key+0x88>
 203af84:	f241 35b5 	movw	r5, #5045	; 0x13b5
 203af88:	4628      	mov	r0, r5
 203af8a:	b00d      	add	sp, #52	; 0x34
 203af8c:	bdf0      	pop	{r4, r5, r6, r7, pc}
 203af8e:	f241 35b4 	movw	r5, #5044	; 0x13b4
 203af92:	4628      	mov	r0, r5
 203af94:	b00d      	add	sp, #52	; 0x34
 203af96:	bdf0      	pop	{r4, r5, r6, r7, pc}
 203af98:	f241 35b6 	movw	r5, #5046	; 0x13b6
 203af9c:	e7f4      	b.n	203af88 <flash_boot_verify_sub_key+0x88>
 203af9e:	f241 35b7 	movw	r5, #5047	; 0x13b7
 203afa2:	e7f1      	b.n	203af88 <flash_boot_verify_sub_key+0x88>

0203afa4 <flash_boot_verify_maintenance_key>:
 203afa4:	2318      	movs	r3, #24
 203afa6:	b5f0      	push	{r4, r5, r6, r7, lr}
 203afa8:	b091      	sub	sp, #68	; 0x44
 203afaa:	4606      	mov	r6, r0
 203afac:	2200      	movs	r2, #0
 203afae:	460c      	mov	r4, r1
 203afb0:	a802      	add	r0, sp, #8
 203afb2:	4619      	mov	r1, r3
 203afb4:	f000 febc 	bl	203bd30 <__memset_s_veneer>
 203afb8:	2001      	movs	r0, #1
 203afba:	a902      	add	r1, sp, #8
 203afbc:	f000 fedc 	bl	203bd78 <__uapi_efuse_read_veneer>
 203afc0:	2800      	cmp	r0, #0
 203afc2:	d140      	bne.n	203b046 <flash_boot_verify_maintenance_key+0xa2>
 203afc4:	2218      	movs	r2, #24
 203afc6:	a902      	add	r1, sp, #8
 203afc8:	f104 0010 	add.w	r0, r4, #16
 203afcc:	f000 fe90 	bl	203bcf0 <__memcmp_veneer>
 203afd0:	2800      	cmp	r0, #0
 203afd2:	d13d      	bne.n	203b050 <flash_boot_verify_maintenance_key+0xac>
 203afd4:	68e3      	ldr	r3, [r4, #12]
 203afd6:	2b18      	cmp	r3, #24
 203afd8:	d130      	bne.n	203b03c <flash_boot_verify_maintenance_key+0x98>
 203afda:	6aa3      	ldr	r3, [r4, #40]	; 0x28
 203afdc:	f5b3 7f00 	cmp.w	r3, #512	; 0x200
 203afe0:	d12c      	bne.n	203b03c <flash_boot_verify_maintenance_key+0x98>
 203afe2:	f8d4 722c 	ldr.w	r7, [r4, #556]	; 0x22c
 203afe6:	f5b7 7f80 	cmp.w	r7, #256	; 0x100
 203afea:	d127      	bne.n	203b03c <flash_boot_verify_maintenance_key+0x98>
 203afec:	1d20      	adds	r0, r4, #4
 203afee:	f7ff ff47 	bl	203ae80 <flash_boot_verify_sign_alg>
 203aff2:	4605      	mov	r5, r0
 203aff4:	bb88      	cbnz	r0, 203b05a <flash_boot_verify_maintenance_key+0xb6>
 203aff6:	2320      	movs	r3, #32
 203aff8:	4602      	mov	r2, r0
 203affa:	4619      	mov	r1, r3
 203affc:	eb0d 0003 	add.w	r0, sp, r3
 203b000:	f000 fe96 	bl	203bd30 <__memset_s_veneer>
 203b004:	f44f 710c 	mov.w	r1, #560	; 0x230
 203b008:	4620      	mov	r0, r4
 203b00a:	aa08      	add	r2, sp, #32
 203b00c:	f000 fe6c 	bl	203bce8 <__uapi_hash_sha256_veneer>
 203b010:	bb30      	cbnz	r0, 203b060 <flash_boot_verify_maintenance_key+0xbc>
 203b012:	ab08      	add	r3, sp, #32
 203b014:	9300      	str	r3, [sp, #0]
 203b016:	79a3      	ldrb	r3, [r4, #6]
 203b018:	f504 740c 	add.w	r4, r4, #560	; 0x230
 203b01c:	f003 033f 	and.w	r3, r3, #63	; 0x3f
 203b020:	463a      	mov	r2, r7
 203b022:	9401      	str	r4, [sp, #4]
 203b024:	f506 718c 	add.w	r1, r6, #280	; 0x118
 203b028:	f106 0018 	add.w	r0, r6, #24
 203b02c:	f000 fea8 	bl	203bd80 <__uapi_rsa_verify_veneer>
 203b030:	f241 33bd 	movw	r3, #5053	; 0x13bd
 203b034:	2800      	cmp	r0, #0
 203b036:	bf18      	it	ne
 203b038:	461d      	movne	r5, r3
 203b03a:	e001      	b.n	203b040 <flash_boot_verify_maintenance_key+0x9c>
 203b03c:	f241 35bb 	movw	r5, #5051	; 0x13bb
 203b040:	4628      	mov	r0, r5
 203b042:	b011      	add	sp, #68	; 0x44
 203b044:	bdf0      	pop	{r4, r5, r6, r7, pc}
 203b046:	f241 35b9 	movw	r5, #5049	; 0x13b9
 203b04a:	4628      	mov	r0, r5
 203b04c:	b011      	add	sp, #68	; 0x44
 203b04e:	bdf0      	pop	{r4, r5, r6, r7, pc}
 203b050:	f241 35ba 	movw	r5, #5050	; 0x13ba
 203b054:	4628      	mov	r0, r5
 203b056:	b011      	add	sp, #68	; 0x44
 203b058:	bdf0      	pop	{r4, r5, r6, r7, pc}
 203b05a:	f44f 559e 	mov.w	r5, #5056	; 0x13c0
 203b05e:	e7ef      	b.n	203b040 <flash_boot_verify_maintenance_key+0x9c>
 203b060:	f241 35bc 	movw	r5, #5052	; 0x13bc
 203b064:	e7ec      	b.n	203b040 <flash_boot_verify_maintenance_key+0x9c>
 203b066:	bf00      	nop

0203b068 <flash_boot_verify_bootloader>:
 203b068:	e92d 41f0 	stmdb	sp!, {r4, r5, r6, r7, r8, lr}
 203b06c:	461d      	mov	r5, r3
 203b06e:	2320      	movs	r3, #32
 203b070:	4604      	mov	r4, r0
 203b072:	b08a      	sub	sp, #40	; 0x28
 203b074:	4690      	mov	r8, r2
 203b076:	460e      	mov	r6, r1
 203b078:	2200      	movs	r2, #0
 203b07a:	4619      	mov	r1, r3
 203b07c:	a802      	add	r0, sp, #8
 203b07e:	f89d 7040 	ldrb.w	r7, [sp, #64]	; 0x40
 203b082:	f000 fe55 	bl	203bd30 <__memset_s_veneer>
 203b086:	e9d4 0100 	ldrd	r0, r1, [r4]
 203b08a:	aa02      	add	r2, sp, #8
 203b08c:	f000 fe2c 	bl	203bce8 <__uapi_hash_sha256_veneer>
 203b090:	b990      	cbnz	r0, 203b0b8 <flash_boot_verify_bootloader+0x50>
 203b092:	ac02      	add	r4, sp, #8
 203b094:	463b      	mov	r3, r7
 203b096:	4641      	mov	r1, r8
 203b098:	4630      	mov	r0, r6
 203b09a:	f44f 7280 	mov.w	r2, #256	; 0x100
 203b09e:	9501      	str	r5, [sp, #4]
 203b0a0:	9400      	str	r4, [sp, #0]
 203b0a2:	f000 fe6d 	bl	203bd80 <__uapi_rsa_verify_veneer>
 203b0a6:	f241 33bf 	movw	r3, #5055	; 0x13bf
 203b0aa:	2800      	cmp	r0, #0
 203b0ac:	bf0c      	ite	eq
 203b0ae:	2000      	moveq	r0, #0
 203b0b0:	4618      	movne	r0, r3
 203b0b2:	b00a      	add	sp, #40	; 0x28
 203b0b4:	e8bd 81f0 	ldmia.w	sp!, {r4, r5, r6, r7, r8, pc}
 203b0b8:	f241 30be 	movw	r0, #5054	; 0x13be
 203b0bc:	b00a      	add	sp, #40	; 0x28
 203b0be:	e8bd 81f0 	ldmia.w	sp!, {r4, r5, r6, r7, r8, pc}
 203b0c2:	bf00      	nop

0203b0c4 <flash_boot_verify_proc>:
 203b0c4:	690a      	ldr	r2, [r1, #16]
 203b0c6:	f5b2 6f80 	cmp.w	r2, #1024	; 0x400
 203b0ca:	d002      	beq.n	203b0d2 <flash_boot_verify_proc+0xe>
 203b0cc:	f241 30a9 	movw	r0, #5033	; 0x13a9
 203b0d0:	4770      	bx	lr
 203b0d2:	b5f0      	push	{r4, r5, r6, r7, lr}
 203b0d4:	68cd      	ldr	r5, [r1, #12]
 203b0d6:	4606      	mov	r6, r0
 203b0d8:	4405      	add	r5, r0
 203b0da:	b085      	sub	sp, #20
 203b0dc:	4628      	mov	r0, r5
 203b0de:	460c      	mov	r4, r1
 203b0e0:	f7ff fedc 	bl	203ae9c <flash_boot_verify_root_pub_key>
 203b0e4:	b928      	cbnz	r0, 203b0f2 <flash_boot_verify_proc+0x2e>
 203b0e6:	69e3      	ldr	r3, [r4, #28]
 203b0e8:	f5b3 6f83 	cmp.w	r3, #1048	; 0x418
 203b0ec:	d003      	beq.n	203b0f6 <flash_boot_verify_proc+0x32>
 203b0ee:	f241 30ab 	movw	r0, #5035	; 0x13ab
 203b0f2:	b005      	add	sp, #20
 203b0f4:	bdf0      	pop	{r4, r5, r6, r7, pc}
 203b0f6:	69a2      	ldr	r2, [r4, #24]
 203b0f8:	4628      	mov	r0, r5
 203b0fa:	18b5      	adds	r5, r6, r2
 203b0fc:	4629      	mov	r1, r5
 203b0fe:	f7ff feff 	bl	203af00 <flash_boot_verify_sub_key>
 203b102:	bb48      	cbnz	r0, 203b158 <flash_boot_verify_proc+0x94>
 203b104:	6a27      	ldr	r7, [r4, #32]
 203b106:	b9cf      	cbnz	r7, 203b13c <flash_boot_verify_proc+0x78>
 203b108:	f105 0118 	add.w	r1, r5, #24
 203b10c:	f505 728c 	add.w	r2, r5, #280	; 0x118
 203b110:	6ae3      	ldr	r3, [r4, #44]	; 0x2c
 203b112:	a802      	add	r0, sp, #8
 203b114:	4433      	add	r3, r6
 203b116:	9302      	str	r3, [sp, #8]
 203b118:	6aa3      	ldr	r3, [r4, #40]	; 0x28
 203b11a:	9303      	str	r3, [sp, #12]
 203b11c:	6b63      	ldr	r3, [r4, #52]	; 0x34
 203b11e:	f894 4032 	ldrb.w	r4, [r4, #50]	; 0x32
 203b122:	4433      	add	r3, r6
 203b124:	f004 043f 	and.w	r4, r4, #63	; 0x3f
 203b128:	9400      	str	r4, [sp, #0]
 203b12a:	f7ff ff9d 	bl	203b068 <flash_boot_verify_bootloader>
 203b12e:	f241 33ae 	movw	r3, #5038	; 0x13ae
 203b132:	2800      	cmp	r0, #0
 203b134:	bf18      	it	ne
 203b136:	4618      	movne	r0, r3
 203b138:	b005      	add	sp, #20
 203b13a:	bdf0      	pop	{r4, r5, r6, r7, pc}
 203b13c:	4437      	add	r7, r6
 203b13e:	4639      	mov	r1, r7
 203b140:	4628      	mov	r0, r5
 203b142:	f7ff ff2f 	bl	203afa4 <flash_boot_verify_maintenance_key>
 203b146:	b920      	cbnz	r0, 203b152 <flash_boot_verify_proc+0x8e>
 203b148:	f107 012c 	add.w	r1, r7, #44	; 0x2c
 203b14c:	f507 7296 	add.w	r2, r7, #300	; 0x12c
 203b150:	e7de      	b.n	203b110 <flash_boot_verify_proc+0x4c>
 203b152:	f241 30ad 	movw	r0, #5037	; 0x13ad
 203b156:	e7cc      	b.n	203b0f2 <flash_boot_verify_proc+0x2e>
 203b158:	f241 30ac 	movw	r0, #5036	; 0x13ac
 203b15c:	e7c9      	b.n	203b0f2 <flash_boot_verify_proc+0x2e>
 203b15e:	bf00      	nop

0203b160 <flash_boot_security_boot_verify>:
 203b160:	b570      	push	{r4, r5, r6, lr}
 203b162:	4604      	mov	r4, r0
 203b164:	2300      	movs	r3, #0
 203b166:	b082      	sub	sp, #8
 203b168:	4621      	mov	r1, r4
 203b16a:	481e      	ldr	r0, [pc, #120]	; (203b1e4 <flash_boot_security_boot_verify+0x84>)
 203b16c:	f88d 3003 	strb.w	r3, [sp, #3]
 203b170:	f000 fe3e 	bl	203bdf0 <__boot_msg1_veneer>
 203b174:	4b1c      	ldr	r3, [pc, #112]	; (203b1e8 <flash_boot_security_boot_verify+0x88>)
 203b176:	6822      	ldr	r2, [r4, #0]
 203b178:	429a      	cmp	r2, r3
 203b17a:	d103      	bne.n	203b184 <flash_boot_security_boot_verify+0x24>
 203b17c:	4b1b      	ldr	r3, [pc, #108]	; (203b1ec <flash_boot_security_boot_verify+0x8c>)
 203b17e:	6be2      	ldr	r2, [r4, #60]	; 0x3c
 203b180:	429a      	cmp	r2, r3
 203b182:	d004      	beq.n	203b18e <flash_boot_security_boot_verify+0x2e>
 203b184:	f241 35a7 	movw	r5, #5031	; 0x13a7
 203b188:	4628      	mov	r0, r5
 203b18a:	b002      	add	sp, #8
 203b18c:	bd70      	pop	{r4, r5, r6, pc}
 203b18e:	2010      	movs	r0, #16
 203b190:	f10d 0103 	add.w	r1, sp, #3
 203b194:	f000 fdf0 	bl	203bd78 <__uapi_efuse_read_veneer>
 203b198:	4605      	mov	r5, r0
 203b19a:	b9e0      	cbnz	r0, 203b1d6 <flash_boot_security_boot_verify+0x76>
 203b19c:	f89d 3003 	ldrb.w	r3, [sp, #3]
 203b1a0:	2b01      	cmp	r3, #1
 203b1a2:	d1f1      	bne.n	203b188 <flash_boot_security_boot_verify+0x28>
 203b1a4:	4621      	mov	r1, r4
 203b1a6:	4620      	mov	r0, r4
 203b1a8:	9501      	str	r5, [sp, #4]
 203b1aa:	6ae6      	ldr	r6, [r4, #44]	; 0x2c
 203b1ac:	f7ff ff8a 	bl	203b0c4 <flash_boot_verify_proc>
 203b1b0:	4605      	mov	r5, r0
 203b1b2:	2800      	cmp	r0, #0
 203b1b4:	d1e8      	bne.n	203b188 <flash_boot_security_boot_verify+0x28>
 203b1b6:	200a      	movs	r0, #10
 203b1b8:	a901      	add	r1, sp, #4
 203b1ba:	f000 fddd 	bl	203bd78 <__uapi_efuse_read_veneer>
 203b1be:	b968      	cbnz	r0, 203b1dc <flash_boot_security_boot_verify+0x7c>
 203b1c0:	480b      	ldr	r0, [pc, #44]	; (203b1f0 <flash_boot_security_boot_verify+0x90>)
 203b1c2:	f000 fd9d 	bl	203bd00 <__boot_msg0_veneer>
 203b1c6:	f241 33b0 	movw	r3, #5040	; 0x13b0
 203b1ca:	59a2      	ldr	r2, [r4, r6]
 203b1cc:	9901      	ldr	r1, [sp, #4]
 203b1ce:	4211      	tst	r1, r2
 203b1d0:	bf18      	it	ne
 203b1d2:	461d      	movne	r5, r3
 203b1d4:	e7d8      	b.n	203b188 <flash_boot_security_boot_verify+0x28>
 203b1d6:	f241 35a8 	movw	r5, #5032	; 0x13a8
 203b1da:	e7d5      	b.n	203b188 <flash_boot_security_boot_verify+0x28>
 203b1dc:	f241 35af 	movw	r5, #5039	; 0x13af
 203b1e0:	e7d2      	b.n	203b188 <flash_boot_security_boot_verify+0x28>
 203b1e2:	bf00      	nop
 203b1e4:	0203bb4c 	andeq	fp, r3, #76, 22	; 0x13000
 203b1e8:	55aa55aa 	strpl	r5, [sl, #1450]!	; 0x5aa
 203b1ec:	33cc33cc 	biccc	r3, ip, #204, 6	; 0x30000003
 203b1f0:	0203bb58 	andeq	fp, r3, #88, 22	; 0x16000

0203b1f4 <boot_firmware_new>:
 203b1f4:	b510      	push	{r4, lr}
 203b1f6:	4604      	mov	r4, r0
 203b1f8:	480d      	ldr	r0, [pc, #52]	; (203b230 <boot_firmware_new+0x3c>)
 203b1fa:	4621      	mov	r1, r4
 203b1fc:	f000 fdf8 	bl	203bdf0 <__boot_msg1_veneer>
 203b200:	f04f 7200 	mov.w	r2, #33554432	; 0x2000000
 203b204:	f44f 31c8 	mov.w	r1, #102400	; 0x19000
 203b208:	4620      	mov	r0, r4
 203b20a:	f7fe f8d3 	bl	20393b4 <uapi_flash_read>
 203b20e:	b928      	cbnz	r0, 203b21c <boot_firmware_new+0x28>
 203b210:	e8bd 4010 	ldmia.w	sp!, {r4, lr}
 203b214:	f04f 7000 	mov.w	r0, #33554432	; 0x2000000
 203b218:	f7fd bfbc 	b.w	2039194 <boot_kernel>
 203b21c:	4805      	ldr	r0, [pc, #20]	; (203b234 <boot_firmware_new+0x40>)
 203b21e:	f000 fd6f 	bl	203bd00 <__boot_msg0_veneer>
 203b222:	e8bd 4010 	ldmia.w	sp!, {r4, lr}
 203b226:	f04f 7000 	mov.w	r0, #33554432	; 0x2000000
 203b22a:	f7fd bfb3 	b.w	2039194 <boot_kernel>
 203b22e:	bf00      	nop
 203b230:	0203bb64 	andeq	fp, r3, #100, 22	; 0x19000
 203b234:	0203b584 	andeq	fp, r3, #132, 10	; 0x21000000

0203b238 <boot_reset>:
 203b238:	2300      	movs	r3, #0
 203b23a:	461a      	mov	r2, r3
 203b23c:	4619      	mov	r1, r3
 203b23e:	4618      	mov	r0, r3
 203b240:	f000 bdae 	b.w	203bda0 <__do_reset_veneer>

0203b244 <kernel_comprss_flash_read>:
 203b244:	468c      	mov	ip, r1
 203b246:	b508      	push	{r3, lr}
 203b248:	4b04      	ldr	r3, [pc, #16]	; (203b25c <kernel_comprss_flash_read+0x18>)
 203b24a:	4611      	mov	r1, r2
 203b24c:	681b      	ldr	r3, [r3, #0]
 203b24e:	4662      	mov	r2, ip
 203b250:	4418      	add	r0, r3
 203b252:	f7fe f8af 	bl	20393b4 <uapi_flash_read>
 203b256:	2000      	movs	r0, #0
 203b258:	bd08      	pop	{r3, pc}
 203b25a:	bf00      	nop
 203b25c:	0203c4b8 	andeq	ip, r3, #184, 8	; 0xb8000000

0203b260 <kernel_comprss_flash_write>:
 203b260:	b510      	push	{r4, lr}
 203b262:	4614      	mov	r4, r2
 203b264:	460a      	mov	r2, r1
 203b266:	4904      	ldr	r1, [pc, #16]	; (203b278 <kernel_comprss_flash_write+0x18>)
 203b268:	2300      	movs	r3, #0
 203b26a:	6809      	ldr	r1, [r1, #0]
 203b26c:	4408      	add	r0, r1
 203b26e:	4621      	mov	r1, r4
 203b270:	f7fe f87e 	bl	2039370 <uapi_flash_write>
 203b274:	4620      	mov	r0, r4
 203b276:	bd10      	pop	{r4, pc}
 203b278:	0203c4b4 	andeq	ip, r3, #180, 8	; 0xb4000000

0203b27c <upg_hash_block_2>:
 203b27c:	e92d 4ff8 	stmdb	sp!, {r3, r4, r5, r6, r7, r8, r9, sl, fp, lr}
 203b280:	4614      	mov	r4, r2
 203b282:	4681      	mov	r9, r0
 203b284:	4688      	mov	r8, r1
 203b286:	461f      	mov	r7, r3
 203b288:	f8dd b028 	ldr.w	fp, [sp, #40]	; 0x28
 203b28c:	f000 fd5c 	bl	203bd48 <__uapi_hash_start_veneer>
 203b290:	b3b4      	cbz	r4, 203b300 <upg_hash_block_2+0x84>
 203b292:	4e1e      	ldr	r6, [pc, #120]	; (203b30c <upg_hash_block_2+0x90>)
 203b294:	f1a8 0804 	sub.w	r8, r8, #4
 203b298:	eb07 0a04 	add.w	sl, r7, r4
 203b29c:	f858 3f04 	ldr.w	r3, [r8, #4]!
 203b2a0:	2500      	movs	r5, #0
 203b2a2:	b983      	cbnz	r3, 203b2c6 <upg_hash_block_2+0x4a>
 203b2a4:	e027      	b.n	203b2f6 <upg_hash_block_2+0x7a>
 203b2a6:	f8d9 0000 	ldr.w	r0, [r9]
 203b2aa:	4632      	mov	r2, r6
 203b2ac:	4621      	mov	r1, r4
 203b2ae:	4428      	add	r0, r5
 203b2b0:	f7fe f880 	bl	20393b4 <uapi_flash_read>
 203b2b4:	4621      	mov	r1, r4
 203b2b6:	4630      	mov	r0, r6
 203b2b8:	f000 fd6a 	bl	203bd90 <__uapi_hash_update_veneer>
 203b2bc:	f8d8 3000 	ldr.w	r3, [r8]
 203b2c0:	4425      	add	r5, r4
 203b2c2:	42ab      	cmp	r3, r5
 203b2c4:	d917      	bls.n	203b2f6 <upg_hash_block_2+0x7a>
 203b2c6:	1b5c      	subs	r4, r3, r5
 203b2c8:	783a      	ldrb	r2, [r7, #0]
 203b2ca:	f5b4 7f80 	cmp.w	r4, #256	; 0x100
 203b2ce:	bf28      	it	cs
 203b2d0:	f44f 7480 	movcs.w	r4, #256	; 0x100
 203b2d4:	2a00      	cmp	r2, #0
 203b2d6:	d1e6      	bne.n	203b2a6 <upg_hash_block_2+0x2a>
 203b2d8:	f8d9 2000 	ldr.w	r2, [r9]
 203b2dc:	f44f 7180 	mov.w	r1, #256	; 0x100
 203b2e0:	4630      	mov	r0, r6
 203b2e2:	4623      	mov	r3, r4
 203b2e4:	442a      	add	r2, r5
 203b2e6:	f000 fd87 	bl	203bdf8 <__memcpy_s_veneer>
 203b2ea:	2800      	cmp	r0, #0
 203b2ec:	d0e2      	beq.n	203b2b4 <upg_hash_block_2+0x38>
 203b2ee:	f04f 30ff 	mov.w	r0, #4294967295	; 0xffffffff
 203b2f2:	e8bd 8ff8 	ldmia.w	sp!, {r3, r4, r5, r6, r7, r8, r9, sl, fp, pc}
 203b2f6:	3701      	adds	r7, #1
 203b2f8:	4557      	cmp	r7, sl
 203b2fa:	f109 0904 	add.w	r9, r9, #4
 203b2fe:	d1cd      	bne.n	203b29c <upg_hash_block_2+0x20>
 203b300:	4658      	mov	r0, fp
 203b302:	e8bd 4ff8 	ldmia.w	sp!, {r3, r4, r5, r6, r7, r8, r9, sl, fp, lr}
 203b306:	f000 bd1b 	b.w	203bd40 <__uapi_hash_final_veneer>
 203b30a:	bf00      	nop
 203b30c:	0203c4bc 	andeq	ip, r3, #188, 8	; 0xbc000000

0203b310 <upg_crc_block>:
 203b310:	e92d 47f0 	stmdb	sp!, {r4, r5, r6, r7, r8, r9, sl, lr}
 203b314:	460f      	mov	r7, r1
 203b316:	4692      	mov	sl, r2
 203b318:	b1f1      	cbz	r1, 203b358 <upg_crc_block+0x48>
 203b31a:	2600      	movs	r6, #0
 203b31c:	4681      	mov	r9, r0
 203b31e:	4635      	mov	r5, r6
 203b320:	f8df 8040 	ldr.w	r8, [pc, #64]	; 203b364 <upg_crc_block+0x54>
 203b324:	1b7c      	subs	r4, r7, r5
 203b326:	f5b4 7f80 	cmp.w	r4, #256	; 0x100
 203b32a:	bf28      	it	cs
 203b32c:	f44f 7480 	movcs.w	r4, #256	; 0x100
 203b330:	4642      	mov	r2, r8
 203b332:	4621      	mov	r1, r4
 203b334:	eb09 0005 	add.w	r0, r9, r5
 203b338:	f7fe f83c 	bl	20393b4 <uapi_flash_read>
 203b33c:	4630      	mov	r0, r6
 203b33e:	4622      	mov	r2, r4
 203b340:	4641      	mov	r1, r8
 203b342:	f7fe f8cf 	bl	20394e4 <uapi_crc32>
 203b346:	4425      	add	r5, r4
 203b348:	42af      	cmp	r7, r5
 203b34a:	4606      	mov	r6, r0
 203b34c:	d8ea      	bhi.n	203b324 <upg_crc_block+0x14>
 203b34e:	2000      	movs	r0, #0
 203b350:	f8ca 6000 	str.w	r6, [sl]
 203b354:	e8bd 87f0 	ldmia.w	sp!, {r4, r5, r6, r7, r8, r9, sl, pc}
 203b358:	460e      	mov	r6, r1
 203b35a:	2000      	movs	r0, #0
 203b35c:	f8ca 6000 	str.w	r6, [sl]
 203b360:	e8bd 87f0 	ldmia.w	sp!, {r4, r5, r6, r7, r8, r9, sl, pc}
 203b364:	0203c4bc 	andeq	ip, r3, #188, 8	; 0xbc000000

0203b368 <upg_hash_block>:
 203b368:	e92d 43f8 	stmdb	sp!, {r3, r4, r5, r6, r7, r8, r9, lr}
 203b36c:	460e      	mov	r6, r1
 203b36e:	4680      	mov	r8, r0
 203b370:	4691      	mov	r9, r2
 203b372:	f000 fce9 	bl	203bd48 <__uapi_hash_start_veneer>
 203b376:	b1a6      	cbz	r6, 203b3a2 <upg_hash_block+0x3a>
 203b378:	2400      	movs	r4, #0
 203b37a:	4f0c      	ldr	r7, [pc, #48]	; (203b3ac <upg_hash_block+0x44>)
 203b37c:	1b35      	subs	r5, r6, r4
 203b37e:	f5b5 7f80 	cmp.w	r5, #256	; 0x100
 203b382:	bf28      	it	cs
 203b384:	f44f 7580 	movcs.w	r5, #256	; 0x100
 203b388:	463a      	mov	r2, r7
 203b38a:	4629      	mov	r1, r5
 203b38c:	eb08 0004 	add.w	r0, r8, r4
 203b390:	f7fe f810 	bl	20393b4 <uapi_flash_read>
 203b394:	442c      	add	r4, r5
 203b396:	4629      	mov	r1, r5
 203b398:	4638      	mov	r0, r7
 203b39a:	f000 fcf9 	bl	203bd90 <__uapi_hash_update_veneer>
 203b39e:	42a6      	cmp	r6, r4
 203b3a0:	d8ec      	bhi.n	203b37c <upg_hash_block+0x14>
 203b3a2:	4648      	mov	r0, r9
 203b3a4:	e8bd 43f8 	ldmia.w	sp!, {r3, r4, r5, r6, r7, r8, r9, lr}
 203b3a8:	f000 bcca 	b.w	203bd40 <__uapi_hash_final_veneer>
 203b3ac:	0203c4bc 	andeq	ip, r3, #188, 8	; 0xbc000000

0203b3b0 <upg_copy_flash_2_flash>:
 203b3b0:	e92d 43f0 	stmdb	sp!, {r4, r5, r6, r7, r8, r9, lr}
 203b3b4:	2500      	movs	r5, #0
 203b3b6:	b087      	sub	sp, #28
 203b3b8:	f89d 4038 	ldrb.w	r4, [sp, #56]	; 0x38
 203b3bc:	4680      	mov	r8, r0
 203b3be:	4689      	mov	r9, r1
 203b3c0:	461e      	mov	r6, r3
 203b3c2:	e9cd 5502 	strd	r5, r5, [sp, #8]
 203b3c6:	9504      	str	r5, [sp, #16]
 203b3c8:	f88d 5014 	strb.w	r5, [sp, #20]
 203b3cc:	b9dc      	cbnz	r4, 203b406 <upg_copy_flash_2_flash+0x56>
 203b3ce:	b1b3      	cbz	r3, 203b3fe <upg_copy_flash_2_flash+0x4e>
 203b3d0:	4f1b      	ldr	r7, [pc, #108]	; (203b440 <upg_copy_flash_2_flash+0x90>)
 203b3d2:	1b35      	subs	r5, r6, r4
 203b3d4:	f5b5 7f80 	cmp.w	r5, #256	; 0x100
 203b3d8:	bf28      	it	cs
 203b3da:	f44f 7580 	movcs.w	r5, #256	; 0x100
 203b3de:	463a      	mov	r2, r7
 203b3e0:	4629      	mov	r1, r5
 203b3e2:	eb08 0004 	add.w	r0, r8, r4
 203b3e6:	f7fd ffe5 	bl	20393b4 <uapi_flash_read>
 203b3ea:	eb09 0004 	add.w	r0, r9, r4
 203b3ee:	2300      	movs	r3, #0
 203b3f0:	463a      	mov	r2, r7
 203b3f2:	4629      	mov	r1, r5
 203b3f4:	442c      	add	r4, r5
 203b3f6:	f7fd ffbb 	bl	2039370 <uapi_flash_write>
 203b3fa:	42a6      	cmp	r6, r4
 203b3fc:	d8e9      	bhi.n	203b3d2 <upg_copy_flash_2_flash+0x22>
 203b3fe:	2000      	movs	r0, #0
 203b400:	b007      	add	sp, #28
 203b402:	e8bd 83f0 	ldmia.w	sp!, {r4, r5, r6, r7, r8, r9, pc}
 203b406:	4617      	mov	r7, r2
 203b408:	9300      	str	r3, [sp, #0]
 203b40a:	460b      	mov	r3, r1
 203b40c:	4601      	mov	r1, r0
 203b40e:	480d      	ldr	r0, [pc, #52]	; (203b444 <upg_copy_flash_2_flash+0x94>)
 203b410:	f000 fce2 	bl	203bdd8 <__boot_msg4_veneer>
 203b414:	aa02      	add	r2, sp, #8
 203b416:	210d      	movs	r1, #13
 203b418:	4640      	mov	r0, r8
 203b41a:	f7fd ffcb 	bl	20393b4 <uapi_flash_read>
 203b41e:	4b0a      	ldr	r3, [pc, #40]	; (203b448 <upg_copy_flash_2_flash+0x98>)
 203b420:	490a      	ldr	r1, [pc, #40]	; (203b44c <upg_copy_flash_2_flash+0x9c>)
 203b422:	f8c3 8000 	str.w	r8, [r3]
 203b426:	4b0a      	ldr	r3, [pc, #40]	; (203b450 <upg_copy_flash_2_flash+0xa0>)
 203b428:	463a      	mov	r2, r7
 203b42a:	9300      	str	r3, [sp, #0]
 203b42c:	a802      	add	r0, sp, #8
 203b42e:	f8c1 9000 	str.w	r9, [r1]
 203b432:	4b08      	ldr	r3, [pc, #32]	; (203b454 <upg_copy_flash_2_flash+0xa4>)
 203b434:	210d      	movs	r1, #13
 203b436:	f7fe f88d 	bl	2039554 <uapi_lzma_decompress>
 203b43a:	b007      	add	sp, #28
 203b43c:	e8bd 83f0 	ldmia.w	sp!, {r4, r5, r6, r7, r8, r9, pc}
 203b440:	0203c4bc 	andeq	ip, r3, #188, 8	; 0xbc000000
 203b444:	0203bb88 	andeq	fp, r3, #136, 22	; 0x22000
 203b448:	0203c4b8 	andeq	ip, r3, #184, 8	; 0xb8000000
 203b44c:	0203c4b4 	andeq	ip, r3, #180, 8	; 0xb4000000
 203b450:	0203b261 	andeq	fp, r3, #268435462	; 0x10000006
 203b454:	0203b245 	andeq	fp, r3, #1342177284	; 0x50000004

0203b458 <uapi_rsa_verify_flash_content>:
 203b458:	e92d 4ff0 	stmdb	sp!, {r4, r5, r6, r7, r8, r9, sl, fp, lr}
 203b45c:	2400      	movs	r4, #0
 203b45e:	b08b      	sub	sp, #44	; 0x2c
 203b460:	4607      	mov	r7, r0
 203b462:	f44f 7080 	mov.w	r0, #256	; 0x100
 203b466:	4688      	mov	r8, r1
 203b468:	4692      	mov	sl, r2
 203b46a:	469b      	mov	fp, r3
 203b46c:	e9cd 4402 	strd	r4, r4, [sp, #8]
 203b470:	e9cd 4404 	strd	r4, r4, [sp, #16]
 203b474:	e9cd 4406 	strd	r4, r4, [sp, #24]
 203b478:	e9cd 4408 	strd	r4, r4, [sp, #32]
 203b47c:	f8dd 9050 	ldr.w	r9, [sp, #80]	; 0x50
 203b480:	f000 fc52 	bl	203bd28 <__boot_malloc_veneer>
 203b484:	b350      	cbz	r0, 203b4dc <uapi_rsa_verify_flash_content+0x84>
 203b486:	f44f 7380 	mov.w	r3, #256	; 0x100
 203b48a:	4605      	mov	r5, r0
 203b48c:	4622      	mov	r2, r4
 203b48e:	2401      	movs	r4, #1
 203b490:	4619      	mov	r1, r3
 203b492:	ae02      	add	r6, sp, #8
 203b494:	f000 fc4c 	bl	203bd30 <__memset_s_veneer>
 203b498:	f885 40ff 	strb.w	r4, [r5, #255]	; 0xff
 203b49c:	f885 40fd 	strb.w	r4, [r5, #253]	; 0xfd
 203b4a0:	465b      	mov	r3, fp
 203b4a2:	4652      	mov	r2, sl
 203b4a4:	4641      	mov	r1, r8
 203b4a6:	4638      	mov	r0, r7
 203b4a8:	9600      	str	r6, [sp, #0]
 203b4aa:	f7ff fee7 	bl	203b27c <upg_hash_block_2>
 203b4ae:	4604      	mov	r4, r0
 203b4b0:	b968      	cbnz	r0, 203b4ce <uapi_rsa_verify_flash_content+0x76>
 203b4b2:	f8d9 1004 	ldr.w	r1, [r9, #4]
 203b4b6:	f899 3008 	ldrb.w	r3, [r9, #8]
 203b4ba:	f8d9 0000 	ldr.w	r0, [r9]
 203b4be:	f44f 7280 	mov.w	r2, #256	; 0x100
 203b4c2:	e9cd 6100 	strd	r6, r1, [sp]
 203b4c6:	4629      	mov	r1, r5
 203b4c8:	f000 fc5a 	bl	203bd80 <__uapi_rsa_verify_veneer>
 203b4cc:	4604      	mov	r4, r0
 203b4ce:	4628      	mov	r0, r5
 203b4d0:	f000 fc32 	bl	203bd38 <__boot_free_veneer>
 203b4d4:	4620      	mov	r0, r4
 203b4d6:	b00b      	add	sp, #44	; 0x2c
 203b4d8:	e8bd 8ff0 	ldmia.w	sp!, {r4, r5, r6, r7, r8, r9, sl, fp, pc}
 203b4dc:	f04f 34ff 	mov.w	r4, #4294967295	; 0xffffffff
 203b4e0:	4620      	mov	r0, r4
 203b4e2:	b00b      	add	sp, #44	; 0x2c
 203b4e4:	e8bd 8ff0 	ldmia.w	sp!, {r4, r5, r6, r7, r8, r9, sl, fp, pc}
 203b4e8:	616c660a 	cmnvs	ip, sl, lsl #12
 203b4ec:	622d6873 	eorvs	r6, sp, #7536640	; 0x730000
 203b4f0:	20746f6f 	rsbscs	r6, r4, pc, ror #30
 203b4f4:	00000000 	andeq	r0, r0, r0
 203b4f8:	33323032 	teqcc	r2, #50	; 0x32
 203b4fc:	2d33302d 	ldccs	0, cr3, [r3, #-180]!	; 0xffffff4c
 203b500:	31203730 			; <UNDEFINED> instruction: 0x31203730
 203b504:	30303a35 	eorscc	r3, r0, r5, lsr sl
 203b508:	0030303a 	eorseq	r3, r0, sl, lsr r0
 203b50c:	6e727562 	cdpvs	5, 7, cr7, cr2, cr2, {3}
 203b510:	64646120 	strbtvs	r6, [r4], #-288	; 0xfffffee0
 203b514:	00000072 	andeq	r0, r0, r2, ror r0
 203b518:	73616c66 	cmnvc	r1, #26112	; 0x6600
 203b51c:	6e695f68 	cdpvs	15, 6, cr5, cr9, cr8, {3}
 203b520:	665f7469 	ldrbvs	r7, [pc], -r9, ror #8
 203b524:	206c6961 	rsbcs	r6, ip, r1, ror #18
 203b528:	3d746572 	cfldr64cc	mvdx6, [r4, #-456]!	; 0xfffffe38
 203b52c:	00000000 	andeq	r0, r0, r0
 203b530:	73616c66 	cmnvc	r1, #26112	; 0x6600
 203b534:	61705f68 	cmnvs	r0, r8, ror #30
 203b538:	74697472 	strbtvc	r7, [r9], #-1138	; 0xfffffb8e
 203b53c:	5f6e6f69 	svcpl	0x006e6f69
 203b540:	74696e69 	strbtvc	r6, [r9], #-3689	; 0xfffff197
 203b544:	74657220 	strbtvc	r7, [r5], #-544	; 0xfffffde0
 203b548:	0000003d 	andeq	r0, r0, sp, lsr r0
 203b54c:	74636166 	strbtvc	r6, [r3], #-358	; 0xfffffe9a
 203b550:	5f79726f 	svcpl	0x0079726f
 203b554:	725f766e 	subsvc	r7, pc, #115343360	; 0x6e00000
 203b558:	20646165 	rsbcs	r6, r4, r5, ror #2
 203b55c:	3d746572 	cfldr64cc	mvdx6, [r4, #-456]!	; 0xfffffe38
 203b560:	00000000 	andeq	r0, r0, r0
 203b564:	65746e69 	ldrbvs	r6, [r4, #-3689]!	; 0xfffff197
 203b568:	70757272 	rsbsvc	r7, r5, r2, ror r2
 203b56c:	20242074 	eorcs	r2, r4, r4, ror r0
 203b570:	00000000 	andeq	r0, r0, r0
 203b574:	746f6f62 	strbtvc	r6, [pc], #-3938	; 203b57c <uapi_rsa_verify_flash_content+0x124>
 203b578:	72656b20 	rsbvc	r6, r5, #32, 22	; 0x8000
 203b57c:	206c656e 	rsbcs	r6, ip, lr, ror #10
 203b580:	002e2e2e 	eoreq	r2, lr, lr, lsr #28
 203b584:	20495053 	subcs	r5, r9, r3, asr r0
 203b588:	73616c66 	cmnvc	r1, #26112	; 0x6600
 203b58c:	65722068 	ldrbvs	r2, [r2, #-104]!	; 0xffffff98
 203b590:	66206461 	strtvs	r6, [r0], -r1, ror #8
 203b594:	206c6c75 	rsbcs	r6, ip, r5, ror ip
 203b598:	6e72656b 	cdpvs	5, 7, cr6, cr2, cr11, {3}
 203b59c:	46206c65 	strtmi	r6, [r0], -r5, ror #24
 203b5a0:	4853414c 	ldmdami	r3, {r2, r3, r6, r8, lr}^
